###############################################################################
#
# IAR ELF Linker V7.30.1.7746/W32 for ARM                 19/Feb/2016  18:31:46
# Copyright 2007-2014 IAR Systems AB.
#
#    Output file  =  
#        D:\工作资料\斐联\sdk-ameba1-v3.4b\project\realtek_ameba1_va0_example\EWARM-RELEASE\Debug\Exe\application.axf
#    Map file     =  
#        D:\工作资料\斐联\sdk-ameba1-v3.4b\project\realtek_ameba1_va0_example\EWARM-RELEASE\Debug\List\application.map
#    Command line =  
#        D:\工作资料\斐联\sdk-ameba1-v3.4b\project\realtek_ameba1_va0_example\EWARM-RELEASE\Debug\Obj\ac_api.o
#        D:\工作资料\斐联\sdk-ameba1-v3.4b\project\realtek_ameba1_va0_example\EWARM-RELEASE\Debug\Obj\ac_hal.o
#        D:\工作资料\斐联\sdk-ameba1-v3.4b\project\realtek_ameba1_va0_example\EWARM-RELEASE\Debug\Obj\aes.o
#        D:\工作资料\斐联\sdk-ameba1-v3.4b\project\realtek_ameba1_va0_example\EWARM-RELEASE\Debug\Obj\aes_cbc.o
#        D:\工作资料\斐联\sdk-ameba1-v3.4b\project\realtek_ameba1_va0_example\EWARM-RELEASE\Debug\Obj\aes_core.o
#        D:\工作资料\斐联\sdk-ameba1-v3.4b\project\realtek_ameba1_va0_example\EWARM-RELEASE\Debug\Obj\aesni.o
#        D:\工作资料\斐联\sdk-ameba1-v3.4b\project\realtek_ameba1_va0_example\EWARM-RELEASE\Debug\Obj\analogin_api.o
#        D:\工作资料\斐联\sdk-ameba1-v3.4b\project\realtek_ameba1_va0_example\EWARM-RELEASE\Debug\Obj\api_lib.o
#        D:\工作资料\斐联\sdk-ameba1-v3.4b\project\realtek_ameba1_va0_example\EWARM-RELEASE\Debug\Obj\api_msg.o
#        D:\工作资料\斐联\sdk-ameba1-v3.4b\project\realtek_ameba1_va0_example\EWARM-RELEASE\Debug\Obj\arc4.o
#        D:\工作资料\斐联\sdk-ameba1-v3.4b\project\realtek_ameba1_va0_example\EWARM-RELEASE\Debug\Obj\asn1parse.o
#        D:\工作资料\斐联\sdk-ameba1-v3.4b\project\realtek_ameba1_va0_example\EWARM-RELEASE\Debug\Obj\asn1write.o
#        D:\工作资料\斐联\sdk-ameba1-v3.4b\project\realtek_ameba1_va0_example\EWARM-RELEASE\Debug\Obj\atcmd_google.o
#        D:\工作资料\斐联\sdk-ameba1-v3.4b\project\realtek_ameba1_va0_example\EWARM-RELEASE\Debug\Obj\atcmd_sys.o
#        D:\工作资料\斐联\sdk-ameba1-v3.4b\project\realtek_ameba1_va0_example\EWARM-RELEASE\Debug\Obj\atcmd_wifi.o
#        D:\工作资料\斐联\sdk-ameba1-v3.4b\project\realtek_ameba1_va0_example\EWARM-RELEASE\Debug\Obj\autoip.o
#        D:\工作资料\斐联\sdk-ameba1-v3.4b\project\realtek_ameba1_va0_example\EWARM-RELEASE\Debug\Obj\base64.o
#        D:\工作资料\斐联\sdk-ameba1-v3.4b\project\realtek_ameba1_va0_example\EWARM-RELEASE\Debug\Obj\bignum.o
#        D:\工作资料\斐联\sdk-ameba1-v3.4b\project\realtek_ameba1_va0_example\EWARM-RELEASE\Debug\Obj\blowfish.o
#        D:\工作资料\斐联\sdk-ameba1-v3.4b\project\realtek_ameba1_va0_example\EWARM-RELEASE\Debug\Obj\camellia.o
#        D:\工作资料\斐联\sdk-ameba1-v3.4b\project\realtek_ameba1_va0_example\EWARM-RELEASE\Debug\Obj\ccm.o
#        D:\工作资料\斐联\sdk-ameba1-v3.4b\project\realtek_ameba1_va0_example\EWARM-RELEASE\Debug\Obj\certs.o
#        D:\工作资料\斐联\sdk-ameba1-v3.4b\project\realtek_ameba1_va0_example\EWARM-RELEASE\Debug\Obj\cipher.o
#        D:\工作资料\斐联\sdk-ameba1-v3.4b\project\realtek_ameba1_va0_example\EWARM-RELEASE\Debug\Obj\cipher_wrap.o
#        D:\工作资料\斐联\sdk-ameba1-v3.4b\project\realtek_ameba1_va0_example\EWARM-RELEASE\Debug\Obj\cJSON.o
#        D:\工作资料\斐联\sdk-ameba1-v3.4b\project\realtek_ameba1_va0_example\EWARM-RELEASE\Debug\Obj\cmsis_os.o
#        D:\工作资料\斐联\sdk-ameba1-v3.4b\project\realtek_ameba1_va0_example\EWARM-RELEASE\Debug\Obj\crc.o
#        D:\工作资料\斐联\sdk-ameba1-v3.4b\project\realtek_ameba1_va0_example\EWARM-RELEASE\Debug\Obj\croutine.o
#        D:\工作资料\斐联\sdk-ameba1-v3.4b\project\realtek_ameba1_va0_example\EWARM-RELEASE\Debug\Obj\ctr_drbg.o
#        D:\工作资料\斐联\sdk-ameba1-v3.4b\project\realtek_ameba1_va0_example\EWARM-RELEASE\Debug\Obj\debug.o
#        D:\工作资料\斐联\sdk-ameba1-v3.4b\project\realtek_ameba1_va0_example\EWARM-RELEASE\Debug\Obj\def.o
#        D:\工作资料\斐联\sdk-ameba1-v3.4b\project\realtek_ameba1_va0_example\EWARM-RELEASE\Debug\Obj\des.o
#        D:\工作资料\斐联\sdk-ameba1-v3.4b\project\realtek_ameba1_va0_example\EWARM-RELEASE\Debug\Obj\dhcp.o
#        D:\工作资料\斐联\sdk-ameba1-v3.4b\project\realtek_ameba1_va0_example\EWARM-RELEASE\Debug\Obj\dhcps.o
#        D:\工作资料\斐联\sdk-ameba1-v3.4b\project\realtek_ameba1_va0_example\EWARM-RELEASE\Debug\Obj\dhm.o
#        D:\工作资料\斐联\sdk-ameba1-v3.4b\project\realtek_ameba1_va0_example\EWARM-RELEASE\Debug\Obj\dma_api.o
#        D:\工作资料\斐联\sdk-ameba1-v3.4b\project\realtek_ameba1_va0_example\EWARM-RELEASE\Debug\Obj\dns.o
#        D:\工作资料\斐联\sdk-ameba1-v3.4b\project\realtek_ameba1_va0_example\EWARM-RELEASE\Debug\Obj\ecdh.o
#        D:\工作资料\斐联\sdk-ameba1-v3.4b\project\realtek_ameba1_va0_example\EWARM-RELEASE\Debug\Obj\ecdsa.o
#        D:\工作资料\斐联\sdk-ameba1-v3.4b\project\realtek_ameba1_va0_example\EWARM-RELEASE\Debug\Obj\ecp.o
#        D:\工作资料\斐联\sdk-ameba1-v3.4b\project\realtek_ameba1_va0_example\EWARM-RELEASE\Debug\Obj\ecp_curves.o
#        D:\工作资料\斐联\sdk-ameba1-v3.4b\project\realtek_ameba1_va0_example\EWARM-RELEASE\Debug\Obj\efuse1_api.o
#        D:\工作资料\斐联\sdk-ameba1-v3.4b\project\realtek_ameba1_va0_example\EWARM-RELEASE\Debug\Obj\efuse2_api.o
#        D:\工作资料\斐联\sdk-ameba1-v3.4b\project\realtek_ameba1_va0_example\EWARM-RELEASE\Debug\Obj\efuse3_api.o
#        D:\工作资料\斐联\sdk-ameba1-v3.4b\project\realtek_ameba1_va0_example\EWARM-RELEASE\Debug\Obj\entropy.o
#        D:\工作资料\斐联\sdk-ameba1-v3.4b\project\realtek_ameba1_va0_example\EWARM-RELEASE\Debug\Obj\entropy_poll.o
#        D:\工作资料\斐联\sdk-ameba1-v3.4b\project\realtek_ameba1_va0_example\EWARM-RELEASE\Debug\Obj\err.o
#        D:\工作资料\斐联\sdk-ameba1-v3.4b\project\realtek_ameba1_va0_example\EWARM-RELEASE\Debug\Obj\error.o
#        D:\工作资料\斐联\sdk-ameba1-v3.4b\project\realtek_ameba1_va0_example\EWARM-RELEASE\Debug\Obj\etharp.o
#        D:\工作资料\斐联\sdk-ameba1-v3.4b\project\realtek_ameba1_va0_example\EWARM-RELEASE\Debug\Obj\ethernetif.o
#        D:\工作资料\斐联\sdk-ameba1-v3.4b\project\realtek_ameba1_va0_example\EWARM-RELEASE\Debug\Obj\event_groups.o
#        D:\工作资料\斐联\sdk-ameba1-v3.4b\project\realtek_ameba1_va0_example\EWARM-RELEASE\Debug\Obj\example_entry.o
#        D:\工作资料\斐联\sdk-ameba1-v3.4b\project\realtek_ameba1_va0_example\EWARM-RELEASE\Debug\Obj\example_google.o
#        D:\工作资料\斐联\sdk-ameba1-v3.4b\project\realtek_ameba1_va0_example\EWARM-RELEASE\Debug\Obj\example_mcast.o
#        D:\工作资料\斐联\sdk-ameba1-v3.4b\project\realtek_ameba1_va0_example\EWARM-RELEASE\Debug\Obj\example_mdns.o
#        D:\工作资料\斐联\sdk-ameba1-v3.4b\project\realtek_ameba1_va0_example\EWARM-RELEASE\Debug\Obj\example_socket_select.o
#        D:\工作资料\斐联\sdk-ameba1-v3.4b\project\realtek_ameba1_va0_example\EWARM-RELEASE\Debug\Obj\example_ssl_download.o
#        D:\工作资料\斐联\sdk-ameba1-v3.4b\project\realtek_ameba1_va0_example\EWARM-RELEASE\Debug\Obj\example_wlan_fast_connect.o
#        D:\工作资料\斐联\sdk-ameba1-v3.4b\project\realtek_ameba1_va0_example\EWARM-RELEASE\Debug\Obj\example_xml.o
#        D:\工作资料\斐联\sdk-ameba1-v3.4b\project\realtek_ameba1_va0_example\EWARM-RELEASE\Debug\Obj\flash_api.o
#        D:\工作资料\斐联\sdk-ameba1-v3.4b\project\realtek_ameba1_va0_example\EWARM-RELEASE\Debug\Obj\freertos_pmu.o
#        D:\工作资料\斐联\sdk-ameba1-v3.4b\project\realtek_ameba1_va0_example\EWARM-RELEASE\Debug\Obj\freertos_service.o
#        D:\工作资料\斐联\sdk-ameba1-v3.4b\project\realtek_ameba1_va0_example\EWARM-RELEASE\Debug\Obj\gcm.o
#        D:\工作资料\斐联\sdk-ameba1-v3.4b\project\realtek_ameba1_va0_example\EWARM-RELEASE\Debug\Obj\gpio_api.o
#        D:\工作资料\斐联\sdk-ameba1-v3.4b\project\realtek_ameba1_va0_example\EWARM-RELEASE\Debug\Obj\gpio_irq_api.o
#        D:\工作资料\斐联\sdk-ameba1-v3.4b\project\realtek_ameba1_va0_example\EWARM-RELEASE\Debug\Obj\hal_32k.o
#        D:\工作资料\斐联\sdk-ameba1-v3.4b\project\realtek_ameba1_va0_example\EWARM-RELEASE\Debug\Obj\hal_adc.o
#        D:\工作资料\斐联\sdk-ameba1-v3.4b\project\realtek_ameba1_va0_example\EWARM-RELEASE\Debug\Obj\hal_gdma.o
#        D:\工作资料\斐联\sdk-ameba1-v3.4b\project\realtek_ameba1_va0_example\EWARM-RELEASE\Debug\Obj\hal_gpio.o
#        D:\工作资料\斐联\sdk-ameba1-v3.4b\project\realtek_ameba1_va0_example\EWARM-RELEASE\Debug\Obj\hal_i2c.o
#        D:\工作资料\斐联\sdk-ameba1-v3.4b\project\realtek_ameba1_va0_example\EWARM-RELEASE\Debug\Obj\hal_i2s.o
#        D:\工作资料\斐联\sdk-ameba1-v3.4b\project\realtek_ameba1_va0_example\EWARM-RELEASE\Debug\Obj\hal_mii.o
#        D:\工作资料\斐联\sdk-ameba1-v3.4b\project\realtek_ameba1_va0_example\EWARM-RELEASE\Debug\Obj\hal_nfc.o
#        D:\工作资料\斐联\sdk-ameba1-v3.4b\project\realtek_ameba1_va0_example\EWARM-RELEASE\Debug\Obj\hal_pcm.o
#        D:\工作资料\斐联\sdk-ameba1-v3.4b\project\realtek_ameba1_va0_example\EWARM-RELEASE\Debug\Obj\hal_pwm.o
#        D:\工作资料\斐联\sdk-ameba1-v3.4b\project\realtek_ameba1_va0_example\EWARM-RELEASE\Debug\Obj\hal_sdr_controller.o
#        D:\工作资料\斐联\sdk-ameba1-v3.4b\project\realtek_ameba1_va0_example\EWARM-RELEASE\Debug\Obj\hal_soc_ps_monitor.o
#        D:\工作资料\斐联\sdk-ameba1-v3.4b\project\realtek_ameba1_va0_example\EWARM-RELEASE\Debug\Obj\hal_ssi.o
#        D:\工作资料\斐联\sdk-ameba1-v3.4b\project\realtek_ameba1_va0_example\EWARM-RELEASE\Debug\Obj\hal_timer.o
#        D:\工作资料\斐联\sdk-ameba1-v3.4b\project\realtek_ameba1_va0_example\EWARM-RELEASE\Debug\Obj\hal_uart.o
#        D:\工作资料\斐联\sdk-ameba1-v3.4b\project\realtek_ameba1_va0_example\EWARM-RELEASE\Debug\Obj\havege.o
#        D:\工作资料\斐联\sdk-ameba1-v3.4b\project\realtek_ameba1_va0_example\EWARM-RELEASE\Debug\Obj\heap_5.o
#        D:\工作资料\斐联\sdk-ameba1-v3.4b\project\realtek_ameba1_va0_example\EWARM-RELEASE\Debug\Obj\hmac_drbg.o
#        D:\工作资料\斐联\sdk-ameba1-v3.4b\project\realtek_ameba1_va0_example\EWARM-RELEASE\Debug\Obj\i2c_api.o
#        D:\工作资料\斐联\sdk-ameba1-v3.4b\project\realtek_ameba1_va0_example\EWARM-RELEASE\Debug\Obj\i2s_api.o
#        D:\工作资料\斐联\sdk-ameba1-v3.4b\project\realtek_ameba1_va0_example\EWARM-RELEASE\Debug\Obj\icmp.o
#        D:\工作资料\斐联\sdk-ameba1-v3.4b\project\realtek_ameba1_va0_example\EWARM-RELEASE\Debug\Obj\igmp.o
#        D:\工作资料\斐联\sdk-ameba1-v3.4b\project\realtek_ameba1_va0_example\EWARM-RELEASE\Debug\Obj\inet.o
#        D:\工作资料\斐联\sdk-ameba1-v3.4b\project\realtek_ameba1_va0_example\EWARM-RELEASE\Debug\Obj\inet_chksum.o
#        D:\工作资料\斐联\sdk-ameba1-v3.4b\project\realtek_ameba1_va0_example\EWARM-RELEASE\Debug\Obj\init.o
#        D:\工作资料\斐联\sdk-ameba1-v3.4b\project\realtek_ameba1_va0_example\EWARM-RELEASE\Debug\Obj\ip.o
#        D:\工作资料\斐联\sdk-ameba1-v3.4b\project\realtek_ameba1_va0_example\EWARM-RELEASE\Debug\Obj\ip_addr.o
#        D:\工作资料\斐联\sdk-ameba1-v3.4b\project\realtek_ameba1_va0_example\EWARM-RELEASE\Debug\Obj\ip_frag.o
#        D:\工作资料\斐联\sdk-ameba1-v3.4b\component\soc\realtek\8195a\misc\bsp\lib\common\IAR\lib_mdns.a
#        D:\工作资料\斐联\sdk-ameba1-v3.4b\component\soc\realtek\8195a\misc\bsp\lib\common\IAR\lib_platform.a
#        D:\工作资料\斐联\sdk-ameba1-v3.4b\component\soc\realtek\8195a\misc\bsp\lib\common\IAR\lib_rtlstd.a
#        D:\工作资料\斐联\sdk-ameba1-v3.4b\component\soc\realtek\8195a\misc\bsp\lib\common\IAR\lib_wlan.a
#        D:\工作资料\斐联\sdk-ameba1-v3.4b\component\soc\realtek\8195a\misc\bsp\lib\common\IAR\lib_wps.a
#        D:\工作资料\斐联\sdk-ameba1-v3.4b\project\realtek_ameba1_va0_example\EWARM-RELEASE\Debug\Obj\list.o
#        D:\工作资料\斐联\sdk-ameba1-v3.4b\project\realtek_ameba1_va0_example\EWARM-RELEASE\Debug\Obj\log_service.o
#        D:\工作资料\斐联\sdk-ameba1-v3.4b\project\realtek_ameba1_va0_example\EWARM-RELEASE\Debug\Obj\low_level_io.o
#        D:\工作资料\斐联\sdk-ameba1-v3.4b\project\realtek_ameba1_va0_example\EWARM-RELEASE\Debug\Obj\lwip_intf.o
#        D:\工作资料\斐联\sdk-ameba1-v3.4b\project\realtek_ameba1_va0_example\EWARM-RELEASE\Debug\Obj\lwip_netconf.o
#        D:\工作资料\斐联\sdk-ameba1-v3.4b\project\realtek_ameba1_va0_example\EWARM-RELEASE\Debug\Obj\lwip_timers.o
#        D:\工作资料\斐联\sdk-ameba1-v3.4b\project\realtek_ameba1_va0_example\EWARM-RELEASE\Debug\Obj\mailbox.o
#        D:\工作资料\斐联\sdk-ameba1-v3.4b\project\realtek_ameba1_va0_example\EWARM-RELEASE\Debug\Obj\main.o
#        D:\工作资料\斐联\sdk-ameba1-v3.4b\project\realtek_ameba1_va0_example\EWARM-RELEASE\Debug\Obj\md.o
#        D:\工作资料\斐联\sdk-ameba1-v3.4b\project\realtek_ameba1_va0_example\EWARM-RELEASE\Debug\Obj\md2.o
#        D:\工作资料\斐联\sdk-ameba1-v3.4b\project\realtek_ameba1_va0_example\EWARM-RELEASE\Debug\Obj\md4.o
#        D:\工作资料\斐联\sdk-ameba1-v3.4b\project\realtek_ameba1_va0_example\EWARM-RELEASE\Debug\Obj\md5.o
#        D:\工作资料\斐联\sdk-ameba1-v3.4b\project\realtek_ameba1_va0_example\EWARM-RELEASE\Debug\Obj\md_wrap.o
#        D:\工作资料\斐联\sdk-ameba1-v3.4b\project\realtek_ameba1_va0_example\EWARM-RELEASE\Debug\Obj\mDNSPlatform.o
#        D:\工作资料\斐联\sdk-ameba1-v3.4b\project\realtek_ameba1_va0_example\EWARM-RELEASE\Debug\Obj\mem.o
#        D:\工作资料\斐联\sdk-ameba1-v3.4b\project\realtek_ameba1_va0_example\EWARM-RELEASE\Debug\Obj\memory_buffer_alloc.o
#        D:\工作资料\斐联\sdk-ameba1-v3.4b\project\realtek_ameba1_va0_example\EWARM-RELEASE\Debug\Obj\memp.o
#        D:\工作资料\斐联\sdk-ameba1-v3.4b\project\realtek_ameba1_va0_example\EWARM-RELEASE\Debug\Obj\net.o
#        D:\工作资料\斐联\sdk-ameba1-v3.4b\project\realtek_ameba1_va0_example\EWARM-RELEASE\Debug\Obj\netbuf.o
#        D:\工作资料\斐联\sdk-ameba1-v3.4b\project\realtek_ameba1_va0_example\EWARM-RELEASE\Debug\Obj\netdb.o
#        D:\工作资料\斐联\sdk-ameba1-v3.4b\project\realtek_ameba1_va0_example\EWARM-RELEASE\Debug\Obj\netif.o
#        D:\工作资料\斐联\sdk-ameba1-v3.4b\project\realtek_ameba1_va0_example\EWARM-RELEASE\Debug\Obj\netifapi.o
#        D:\工作资料\斐联\sdk-ameba1-v3.4b\project\realtek_ameba1_va0_example\EWARM-RELEASE\Debug\Obj\nfc_api.o
#        D:\工作资料\斐联\sdk-ameba1-v3.4b\project\realtek_ameba1_va0_example\EWARM-RELEASE\Debug\Obj\oid.o
#        D:\工作资料\斐联\sdk-ameba1-v3.4b\project\realtek_ameba1_va0_example\EWARM-RELEASE\Debug\Obj\osdep_api.o
#        D:\工作资料\斐联\sdk-ameba1-v3.4b\project\realtek_ameba1_va0_example\EWARM-RELEASE\Debug\Obj\osdep_service.o
#        D:\工作资料\斐联\sdk-ameba1-v3.4b\project\realtek_ameba1_va0_example\EWARM-RELEASE\Debug\Obj\padlock.o
#        D:\工作资料\斐联\sdk-ameba1-v3.4b\project\realtek_ameba1_va0_example\EWARM-RELEASE\Debug\Obj\pbkdf2.o
#        D:\工作资料\斐联\sdk-ameba1-v3.4b\project\realtek_ameba1_va0_example\EWARM-RELEASE\Debug\Obj\pbuf.o
#        D:\工作资料\斐联\sdk-ameba1-v3.4b\project\realtek_ameba1_va0_example\EWARM-RELEASE\Debug\Obj\pem.o
#        D:\工作资料\斐联\sdk-ameba1-v3.4b\project\realtek_ameba1_va0_example\EWARM-RELEASE\Debug\Obj\ping_test.o
#        D:\工作资料\斐联\sdk-ameba1-v3.4b\project\realtek_ameba1_va0_example\EWARM-RELEASE\Debug\Obj\pinmap.o
#        D:\工作资料\斐联\sdk-ameba1-v3.4b\project\realtek_ameba1_va0_example\EWARM-RELEASE\Debug\Obj\pinmap_common.o
#        D:\工作资料\斐联\sdk-ameba1-v3.4b\project\realtek_ameba1_va0_example\EWARM-RELEASE\Debug\Obj\pk.o
#        D:\工作资料\斐联\sdk-ameba1-v3.4b\project\realtek_ameba1_va0_example\EWARM-RELEASE\Debug\Obj\pk_wrap.o
#        D:\工作资料\斐联\sdk-ameba1-v3.4b\project\realtek_ameba1_va0_example\EWARM-RELEASE\Debug\Obj\pkcs11.o
#        D:\工作资料\斐联\sdk-ameba1-v3.4b\project\realtek_ameba1_va0_example\EWARM-RELEASE\Debug\Obj\pkcs12.o
#        D:\工作资料\斐联\sdk-ameba1-v3.4b\project\realtek_ameba1_va0_example\EWARM-RELEASE\Debug\Obj\pkcs5.o
#        D:\工作资料\斐联\sdk-ameba1-v3.4b\project\realtek_ameba1_va0_example\EWARM-RELEASE\Debug\Obj\pkparse.o
#        D:\工作资料\斐联\sdk-ameba1-v3.4b\project\realtek_ameba1_va0_example\EWARM-RELEASE\Debug\Obj\pkwrite.o
#        D:\工作资料\斐联\sdk-ameba1-v3.4b\project\realtek_ameba1_va0_example\EWARM-RELEASE\Debug\Obj\platform.o
#        D:\工作资料\斐联\sdk-ameba1-v3.4b\project\realtek_ameba1_va0_example\EWARM-RELEASE\Debug\Obj\port.o
#        D:\工作资料\斐联\sdk-ameba1-v3.4b\project\realtek_ameba1_va0_example\EWARM-RELEASE\Debug\Obj\port_api.o
#        D:\工作资料\斐联\sdk-ameba1-v3.4b\project\realtek_ameba1_va0_example\EWARM-RELEASE\Debug\Obj\portasm.o
#        D:\工作资料\斐联\sdk-ameba1-v3.4b\project\realtek_ameba1_va0_example\EWARM-RELEASE\Debug\Obj\pwmout_api.o
#        D:\工作资料\斐联\sdk-ameba1-v3.4b\project\realtek_ameba1_va0_example\EWARM-RELEASE\Debug\Obj\queue.o
#        D:\工作资料\斐联\sdk-ameba1-v3.4b\project\realtek_ameba1_va0_example\EWARM-RELEASE\Debug\Obj\raw.o
#        D:\工作资料\斐联\sdk-ameba1-v3.4b\project\realtek_ameba1_va0_example\EWARM-RELEASE\Debug\Obj\ripemd160.o
#        D:\工作资料\斐联\sdk-ameba1-v3.4b\component\soc\realtek\8195a\misc\bsp\lib\va0\rom.a
#        D:\工作资料\斐联\sdk-ameba1-v3.4b\project\realtek_ameba1_va0_example\EWARM-RELEASE\Debug\Obj\rom_ssl_ram_map.o
#        D:\工作资料\斐联\sdk-ameba1-v3.4b\project\realtek_ameba1_va0_example\EWARM-RELEASE\Debug\Obj\rsa.o
#        D:\工作资料\斐联\sdk-ameba1-v3.4b\project\realtek_ameba1_va0_example\EWARM-RELEASE\Debug\Obj\rtc_api.o
#        D:\工作资料\斐联\sdk-ameba1-v3.4b\project\realtek_ameba1_va0_example\EWARM-RELEASE\Debug\Obj\rtl8195a_adc.o
#        D:\工作资料\斐联\sdk-ameba1-v3.4b\project\realtek_ameba1_va0_example\EWARM-RELEASE\Debug\Obj\rtl8195a_gdma.o
#        D:\工作资料\斐联\sdk-ameba1-v3.4b\project\realtek_ameba1_va0_example\EWARM-RELEASE\Debug\Obj\rtl8195a_gpio.o
#        D:\工作资料\斐联\sdk-ameba1-v3.4b\project\realtek_ameba1_va0_example\EWARM-RELEASE\Debug\Obj\rtl8195a_i2c.o
#        D:\工作资料\斐联\sdk-ameba1-v3.4b\project\realtek_ameba1_va0_example\EWARM-RELEASE\Debug\Obj\rtl8195a_i2s.o
#        D:\工作资料\斐联\sdk-ameba1-v3.4b\project\realtek_ameba1_va0_example\EWARM-RELEASE\Debug\Obj\rtl8195a_it.o
#        D:\工作资料\斐联\sdk-ameba1-v3.4b\project\realtek_ameba1_va0_example\EWARM-RELEASE\Debug\Obj\rtl8195a_nfc.o
#        D:\工作资料\斐联\sdk-ameba1-v3.4b\project\realtek_ameba1_va0_example\EWARM-RELEASE\Debug\Obj\rtl8195a_pwm.o
#        D:\工作资料\斐联\sdk-ameba1-v3.4b\project\realtek_ameba1_va0_example\EWARM-RELEASE\Debug\Obj\rtl8195a_ssi.o
#        D:\工作资料\斐联\sdk-ameba1-v3.4b\project\realtek_ameba1_va0_example\EWARM-RELEASE\Debug\Obj\rtl8195a_timer.o
#        D:\工作资料\斐联\sdk-ameba1-v3.4b\project\realtek_ameba1_va0_example\EWARM-RELEASE\Debug\Obj\rtl8195a_uart.o
#        D:\工作资料\斐联\sdk-ameba1-v3.4b\project\realtek_ameba1_va0_example\EWARM-RELEASE\Debug\Obj\rtl_consol.o
#        D:\工作资料\斐联\sdk-ameba1-v3.4b\project\realtek_ameba1_va0_example\EWARM-RELEASE\Debug\Obj\serial_api.o
#        D:\工作资料\斐联\sdk-ameba1-v3.4b\project\realtek_ameba1_va0_example\EWARM-RELEASE\Debug\Obj\sha1.o
#        D:\工作资料\斐联\sdk-ameba1-v3.4b\project\realtek_ameba1_va0_example\EWARM-RELEASE\Debug\Obj\sha256.o
#        D:\工作资料\斐联\sdk-ameba1-v3.4b\project\realtek_ameba1_va0_example\EWARM-RELEASE\Debug\Obj\sha512.o
#        D:\工作资料\斐联\sdk-ameba1-v3.4b\project\realtek_ameba1_va0_example\EWARM-RELEASE\Debug\Obj\sleep.o
#        D:\工作资料\斐联\sdk-ameba1-v3.4b\project\realtek_ameba1_va0_example\EWARM-RELEASE\Debug\Obj\sockets.o
#        D:\工作资料\斐联\sdk-ameba1-v3.4b\project\realtek_ameba1_va0_example\EWARM-RELEASE\Debug\Obj\spi_api.o
#        D:\工作资料\斐联\sdk-ameba1-v3.4b\project\realtek_ameba1_va0_example\EWARM-RELEASE\Debug\Obj\ssl_cache.o
#        D:\工作资料\斐联\sdk-ameba1-v3.4b\project\realtek_ameba1_va0_example\EWARM-RELEASE\Debug\Obj\ssl_ciphersuites.o
#        D:\工作资料\斐联\sdk-ameba1-v3.4b\project\realtek_ameba1_va0_example\EWARM-RELEASE\Debug\Obj\ssl_cli.o
#        D:\工作资料\斐联\sdk-ameba1-v3.4b\project\realtek_ameba1_va0_example\EWARM-RELEASE\Debug\Obj\ssl_client.o
#        D:\工作资料\斐联\sdk-ameba1-v3.4b\project\realtek_ameba1_va0_example\EWARM-RELEASE\Debug\Obj\ssl_ram_map.o
#        D:\工作资料\斐联\sdk-ameba1-v3.4b\project\realtek_ameba1_va0_example\EWARM-RELEASE\Debug\Obj\ssl_srv.o
#        D:\工作资料\斐联\sdk-ameba1-v3.4b\project\realtek_ameba1_va0_example\EWARM-RELEASE\Debug\Obj\ssl_tls.o
#        D:\工作资料\斐联\sdk-ameba1-v3.4b\project\realtek_ameba1_va0_example\EWARM-RELEASE\Debug\Obj\stats.o
#        D:\工作资料\斐联\sdk-ameba1-v3.4b\project\realtek_ameba1_va0_example\EWARM-RELEASE\Debug\Obj\sys.o
#        D:\工作资料\斐联\sdk-ameba1-v3.4b\project\realtek_ameba1_va0_example\EWARM-RELEASE\Debug\Obj\sys_api.o
#        D:\工作资料\斐联\sdk-ameba1-v3.4b\project\realtek_ameba1_va0_example\EWARM-RELEASE\Debug\Obj\sys_arch.o
#        D:\工作资料\斐联\sdk-ameba1-v3.4b\project\realtek_ameba1_va0_example\EWARM-RELEASE\Debug\Obj\system_8195a.o
#        D:\工作资料\斐联\sdk-ameba1-v3.4b\project\realtek_ameba1_va0_example\EWARM-RELEASE\Debug\Obj\tasks.o
#        D:\工作资料\斐联\sdk-ameba1-v3.4b\project\realtek_ameba1_va0_example\EWARM-RELEASE\Debug\Obj\tcm_heap.o
#        D:\工作资料\斐联\sdk-ameba1-v3.4b\project\realtek_ameba1_va0_example\EWARM-RELEASE\Debug\Obj\tcp.o
#        D:\工作资料\斐联\sdk-ameba1-v3.4b\project\realtek_ameba1_va0_example\EWARM-RELEASE\Debug\Obj\tcp_in.o
#        D:\工作资料\斐联\sdk-ameba1-v3.4b\project\realtek_ameba1_va0_example\EWARM-RELEASE\Debug\Obj\tcp_out.o
#        D:\工作资料\斐联\sdk-ameba1-v3.4b\project\realtek_ameba1_va0_example\EWARM-RELEASE\Debug\Obj\tcpip.o
#        D:\工作资料\斐联\sdk-ameba1-v3.4b\project\realtek_ameba1_va0_example\EWARM-RELEASE\Debug\Obj\tcptest.o
#        D:\工作资料\斐联\sdk-ameba1-v3.4b\project\realtek_ameba1_va0_example\EWARM-RELEASE\Debug\Obj\threading.o
#        D:\工作资料\斐联\sdk-ameba1-v3.4b\project\realtek_ameba1_va0_example\EWARM-RELEASE\Debug\Obj\timer_api.o
#        D:\工作资料\斐联\sdk-ameba1-v3.4b\project\realtek_ameba1_va0_example\EWARM-RELEASE\Debug\Obj\timers.o
#        D:\工作资料\斐联\sdk-ameba1-v3.4b\project\realtek_ameba1_va0_example\EWARM-RELEASE\Debug\Obj\timing.o
#        D:\工作资料\斐联\sdk-ameba1-v3.4b\project\realtek_ameba1_va0_example\EWARM-RELEASE\Debug\Obj\uart_adapter.o
#        D:\工作资料\斐联\sdk-ameba1-v3.4b\project\realtek_ameba1_va0_example\EWARM-RELEASE\Debug\Obj\uart_socket.o
#        D:\工作资料\斐联\sdk-ameba1-v3.4b\project\realtek_ameba1_va0_example\EWARM-RELEASE\Debug\Obj\udp.o
#        D:\工作资料\斐联\sdk-ameba1-v3.4b\project\realtek_ameba1_va0_example\EWARM-RELEASE\Debug\Obj\update.o
#        D:\工作资料\斐联\sdk-ameba1-v3.4b\project\realtek_ameba1_va0_example\EWARM-RELEASE\Debug\Obj\us_ticker.o
#        D:\工作资料\斐联\sdk-ameba1-v3.4b\project\realtek_ameba1_va0_example\EWARM-RELEASE\Debug\Obj\us_ticker_api.o
#        D:\工作资料\斐联\sdk-ameba1-v3.4b\project\realtek_ameba1_va0_example\EWARM-RELEASE\Debug\Obj\version.o
#        D:\工作资料\斐联\sdk-ameba1-v3.4b\project\realtek_ameba1_va0_example\EWARM-RELEASE\Debug\Obj\version_features.o
#        D:\工作资料\斐联\sdk-ameba1-v3.4b\project\realtek_ameba1_va0_example\EWARM-RELEASE\Debug\Obj\wait_api.o
#        D:\工作资料\斐联\sdk-ameba1-v3.4b\project\realtek_ameba1_va0_example\EWARM-RELEASE\Debug\Obj\wdt_api.o
#        D:\工作资料\斐联\sdk-ameba1-v3.4b\project\realtek_ameba1_va0_example\EWARM-RELEASE\Debug\Obj\webserver.o
#        D:\工作资料\斐联\sdk-ameba1-v3.4b\project\realtek_ameba1_va0_example\EWARM-RELEASE\Debug\Obj\wifi_conf.o
#        D:\工作资料\斐联\sdk-ameba1-v3.4b\project\realtek_ameba1_va0_example\EWARM-RELEASE\Debug\Obj\wifi_ind.o
#        D:\工作资料\斐联\sdk-ameba1-v3.4b\project\realtek_ameba1_va0_example\EWARM-RELEASE\Debug\Obj\wifi_interactive_mode.o
#        D:\工作资料\斐联\sdk-ameba1-v3.4b\project\realtek_ameba1_va0_example\EWARM-RELEASE\Debug\Obj\wifi_promisc.o
#        D:\工作资料\斐联\sdk-ameba1-v3.4b\project\realtek_ameba1_va0_example\EWARM-RELEASE\Debug\Obj\wifi_simple_config.o
#        D:\工作资料\斐联\sdk-ameba1-v3.4b\project\realtek_ameba1_va0_example\EWARM-RELEASE\Debug\Obj\wifi_util.o
#        D:\工作资料\斐联\sdk-ameba1-v3.4b\project\realtek_ameba1_va0_example\EWARM-RELEASE\Debug\Obj\wifi_wps_config.o
#        D:\工作资料\斐联\sdk-ameba1-v3.4b\project\realtek_ameba1_va0_example\EWARM-RELEASE\Debug\Obj\wlan_network.o
#        D:\工作资料\斐联\sdk-ameba1-v3.4b\project\realtek_ameba1_va0_example\EWARM-RELEASE\Debug\Obj\x509.o
#        D:\工作资料\斐联\sdk-ameba1-v3.4b\project\realtek_ameba1_va0_example\EWARM-RELEASE\Debug\Obj\x509_create.o
#        D:\工作资料\斐联\sdk-ameba1-v3.4b\project\realtek_ameba1_va0_example\EWARM-RELEASE\Debug\Obj\x509_crl.o
#        D:\工作资料\斐联\sdk-ameba1-v3.4b\project\realtek_ameba1_va0_example\EWARM-RELEASE\Debug\Obj\x509_crt.o
#        D:\工作资料\斐联\sdk-ameba1-v3.4b\project\realtek_ameba1_va0_example\EWARM-RELEASE\Debug\Obj\x509_csr.o
#        D:\工作资料\斐联\sdk-ameba1-v3.4b\project\realtek_ameba1_va0_example\EWARM-RELEASE\Debug\Obj\x509write_crt.o
#        D:\工作资料\斐联\sdk-ameba1-v3.4b\project\realtek_ameba1_va0_example\EWARM-RELEASE\Debug\Obj\x509write_csr.o
#        D:\工作资料\斐联\sdk-ameba1-v3.4b\project\realtek_ameba1_va0_example\EWARM-RELEASE\Debug\Obj\xml.o
#        D:\工作资料\斐联\sdk-ameba1-v3.4b\project\realtek_ameba1_va0_example\EWARM-RELEASE\Debug\Obj\xtea.o
#        D:\工作资料\斐联\sdk-ameba1-v3.4b\project\realtek_ameba1_va0_example\EWARM-RELEASE\Debug\Obj\zc_bc.o
#        D:\工作资料\斐联\sdk-ameba1-v3.4b\project\realtek_ameba1_va0_example\EWARM-RELEASE\Debug\Obj\zc_client_manager.o
#        D:\工作资料\斐联\sdk-ameba1-v3.4b\project\realtek_ameba1_va0_example\EWARM-RELEASE\Debug\Obj\zc_cloud_event.o
#        D:\工作资料\斐联\sdk-ameba1-v3.4b\project\realtek_ameba1_va0_example\EWARM-RELEASE\Debug\Obj\zc_common.o
#        D:\工作资料\斐联\sdk-ameba1-v3.4b\project\realtek_ameba1_va0_example\EWARM-RELEASE\Debug\Obj\zc_configuration.o
#        D:\工作资料\斐联\sdk-ameba1-v3.4b\project\realtek_ameba1_va0_example\EWARM-RELEASE\Debug\Obj\zc_hf_adpter.o
#        D:\工作资料\斐联\sdk-ameba1-v3.4b\project\realtek_ameba1_va0_example\EWARM-RELEASE\Debug\Obj\zc_message_queue.o
#        D:\工作资料\斐联\sdk-ameba1-v3.4b\project\realtek_ameba1_va0_example\EWARM-RELEASE\Debug\Obj\zc_moudle_manager.o
#        D:\工作资料\斐联\sdk-ameba1-v3.4b\project\realtek_ameba1_va0_example\EWARM-RELEASE\Debug\Obj\zc_protocol_controller.o
#        D:\工作资料\斐联\sdk-ameba1-v3.4b\project\realtek_ameba1_va0_example\EWARM-RELEASE\Debug\Obj\zc_sec_engine.o
#        D:\工作资料\斐联\sdk-ameba1-v3.4b\project\realtek_ameba1_va0_example\EWARM-RELEASE\Debug\Obj\zc_timer.o
#        -o
#        D:\工作资料\斐联\sdk-ameba1-v3.4b\project\realtek_ameba1_va0_example\EWARM-RELEASE\Debug\Exe\application.axf
#        --redirect _Printf=_PrintfTiny --redirect _Scanf=_ScanfSmallNoMb
#        --keep bootloader --keep gImage2EntryFun0 --keep RAM_IMG2_VALID_PATTEN
#        --image_input=D:\工作资料\斐联\sdk-ameba1-v3.4b\project\realtek_ameba1_va0_example\EWARM-RELEASE\..\..\..\component\soc\realtek\8195a\misc\bsp\image\ram_1.r.bin,bootloader,LOADER,4
#        --map
#        D:\工作资料\斐联\sdk-ameba1-v3.4b\project\realtek_ameba1_va0_example\EWARM-RELEASE\Debug\List\application.map
#        --log veneers --log_file
#        D:\工作资料\斐联\sdk-ameba1-v3.4b\project\realtek_ameba1_va0_example\EWARM-RELEASE\Debug\List\application.log
#        --config
#        D:\工作资料\斐联\sdk-ameba1-v3.4b\project\realtek_ameba1_va0_example\EWARM-RELEASE\image2.icf
#        --diag_suppress Lt009,Lp005,Lp006 --entry Reset_Handler
#        --no_exceptions --no_vfe
#
###############################################################################

*******************************************************************************
*** RUNTIME MODEL ATTRIBUTES
***

CppFlavor       = *
__Heap_Handler  = DLMalloc
__SystemLibrary = DLib


*******************************************************************************
*** PLACEMENT SUMMARY
***

"A1":  place at start of [0x00000000-0x000fffff] { ro, section .rom };
"A2":  place at start of [0x10000000-0x10005fff] {
          rw, block .vector_table, block .user_vector_table,
          block .user_data_table, block .rom.bss, block IMAGE1 };
"A3":  place at start of [0x10006000-0x1006ffff] {
          rw, block IMAGE2, block .ram.bss };
"A4":  place at end of [0x10006000-0x1006ffff] { rw, block .bf_data };
"A6":  place at start of [0x1fff0000-0x1fffffff] { rw, overlay TCM_overlay };

  Section                 Kind        Address     Size  Object
  -------                 ----        -------     ----  ------
"A1":                                          0x43828
  .rom                    ro code  0x00000000  0x43828  rom.o [11]
                                 - 0x00043828  0x43828

"A2":                                           0x4294
  .vector_table                    0x10000000    0x100  <Block>
    .ram_dedecated_vector_table
                          const    0x10000000    0x100  rom.o [11]
  .user_vector_table               0x10000100    0x100  <Block>
    .ram_user_define_irq_table
                          const    0x10000100    0x100  rom.o [11]
  .user_data_table                 0x10000200    0x100  <Block>
    .ram_user_define_data_table
                          const    0x10000200    0x100  rom.o [11]
  .rom.bss                         0x10000300    0x8c8  <Block>
    .hal.ram.bss          const    0x10000300     0x58  rom.o [11]
    .timer2_7_vector_table.data
                          const    0x10000358     0x18  rom.o [11]
    .infra.ram.bss        const    0x10000370     0x14  rom.o [11]
    .mon.ram.bss          zero     0x10000384    0x324  rtl_consol.o [2]
    .mon.ram.bss          zero     0x100006a8      0x4  rtl_consol.o [2]
    .mon.ram.bss          zero     0x100006ac     0x28  rtl_consol.o [2]
    .wlan_ram_map         const    0x100006d4      0x8  rom_wlan_ram_map.o [11]
    .wlan_ram_map         const    0x100006e0     0x80  rom.o [11]
    .libc.ram.bss         const    0x10000760    0x468  rom.o [11]
  IMAGE1                           0x10000bc8   0x36cc  <Block>
    LOADER                const    0x10000bc8   0x36cc  ram_1.r.bin [1]
                                 - 0x10004294   0x4294

"A3":                                          0x552a0
  IMAGE2                           0x10006000  0x4a880  <Block>
    .image2.start.table1           0x10006000      0x4  <Block>
      .image2.ram.data    const    0x10006000      0x4  startup.o [6]
    .image2.start.table2           0x10006004     0x34  <Block>
      .image2.validate.rodata
                          const    0x10006004     0x14  startup.o [6]
      .custom.validate.rodata
                          const    0x10006018     0x20  update.o [2]
    .ram_image2.text               0x10006038  0x4787c  <Block>
      Veneer              ro code  0x10006038      0x8  - Linker created -
      Veneer              ro code  0x10006040      0x8  - Linker created -
      Veneer              ro code  0x10006048      0x8  - Linker created -
      .infra.ram.start    ro code  0x10006050    0x12c  startup.o [6]
      .rodata             const    0x1000617c   0x1000  aes_core.o [2]
      .rodata             const    0x1000717c     0x60  atcmd_sys.o [2]
      .rodata             const    0x100071dc    0x1a8  atcmd_wifi.o [2]
      .rodata             const    0x10007384    0x124  freertos_service.o [2]
      .rodata             const    0x100074a8      0x8  ip_addr.o [2]
      .rodata             const    0x100074b0     0x10  log_service.o [2]
      .rodata             const    0x100074c0     0xa4  rtw_mlme_ext.o [8]
      .rodata             const    0x10007564     0x10  lxbus_hci_intf.o [8]
      .rodata             const    0x10007574   0x116c  rom_rtw_message.o [8]
      .rodata             const    0x100086e0      0x8  rtw_wlan_util.o [8]
      .rodata             const    0x100086e8     0xc4  dh_groups.o [9]
      .rodata             const    0x100087ac    0x270  phydm_PowerTracking.o [8]
      .rodata             const    0x10008a1c     0x80  HalHWImg8195A_RF.o [8]
      .rodata             const    0x10008a9c      0x0  zero_init3.o [12]
      CPP_INIT                     0x10008a9c      0x0  <Block>
        SHT$$PREINIT_ARRAY
                                   0x10008a9c      0x0  <Block>
        SHT$$INIT_ARRAY            0x10008a9c      0x0  <Block>
      Veneer              ro code  0x10008a9c      0x8  - Linker created -
      Veneer              ro code  0x10008aa4      0x8  - Linker created -
      Veneer              ro code  0x10008aac      0x8  - Linker created -
      Veneer              ro code  0x10008ab4      0x8  - Linker created -
      Veneer              ro code  0x10008abc      0x8  - Linker created -
      Veneer              ro code  0x10008ac4      0x8  - Linker created -
      .mon.ram.text       ro code  0x10008acc    0x1b4  rtl_consol.o [2]
      Veneer              ro code  0x10008c80      0x8  - Linker created -
      Veneer              ro code  0x10008c88      0x8  - Linker created -
      Veneer              ro code  0x10008c90      0x8  - Linker created -
      .hal.flash.text     ro code  0x10008c98    0xe78  hal_spi_flash_ram.o [6]
      Veneer              ro code  0x10009b10      0x8  - Linker created -
      Veneer              ro code  0x10009b18      0x8  - Linker created -
      .hal.gpio.text      ro code  0x10009b20     0x74  hal_gpio.o [2]
      .text               ro code  0x10009b94     0x48  main.o [2]
      .text               ro code  0x10009bdc    0x1b0  ac_api.o [2]
      .text               ro code  0x10009d8c     0x76  ABImemcpy_unaligned.o [12]
      .text               ro code  0x10009e02      0x6  rtl8195a_recv.o [8]
      .text               ro code  0x10009e08     0x46  crc.o [2]
      .text               ro code  0x10009e4e     0x1e  xsscin.o [4]
      .text               ro code  0x10009e6c    0x29c  zc_moudle_manager.o [2]
      .text               ro code  0x1000a108     0xe0  ac_hal.o [2]
      .text               ro code  0x1000a1e8    0x1b0  zc_cloud_event.o [2]
      .text               ro code  0x1000a398     0x78  ABImemmove_unaligned.o [12]
      .text               ro code  0x1000a410    0x228  zc_configuration.o [2]
      .text               ro code  0x1000a638    0x1b2  aes_cbc.o [2]
      .text               ro code  0x1000a7ea     0x1a  xsnprout.o [4]
      .text               ro code  0x1000a804    0xeb0  zc_protocol_controller.o [2]
      .text               ro code  0x1000b6b4    0x11c  zc_timer.o [2]
      .text               ro code  0x1000b7d0    0x1d0  zc_common.o [2]
      .text               ro code  0x1000b9a0     0x3a  ABImemset48.o [12]
      .text               ro code  0x1000b9da     0x22  zero_init3.o [12]
      .text               ro code  0x1000b9fc   0x2286  aes_core.o [2]
      .text               ro code  0x1000dc84    0x258  zc_message_queue.o [2]
      .text               ro code  0x1000dedc    0x2ca  zc_client_manager.o [2]
      .text               ro code  0x1000e1a8     0x62  memcmp_unaligned.o [12]
      .text               ro code  0x1000e20c     0xe0  rand.o [4]
      .text               ro code  0x1000e2ec    0xf10  zc_hf_adpter.o [2]
      .text               ro code  0x1000f1fc    0x478  zc_sec_engine.o [2]
      .text               ro code  0x1000f674      0x2  xtls.o [4]
      .text               ro code  0x1000f678    0x2e0  flash_api.o [2]
      Veneer              ro code  0x1000f958      0x8  - Linker created -
      Veneer              ro code  0x1000f960      0x8  - Linker created -
      Veneer              ro code  0x1000f968      0x8  - Linker created -
      Veneer              ro code  0x1000f970      0x8  - Linker created -
      Veneer              ro code  0x1000f978      0x8  - Linker created -
      Veneer              ro code  0x1000f980      0x8  - Linker created -
      Veneer              ro code  0x1000f988      0x8  - Linker created -
      Veneer              ro code  0x1000f990      0x8  - Linker created -
      Veneer              ro code  0x1000f998      0x8  - Linker created -
      Veneer              ro code  0x1000f9a0      0x8  - Linker created -
      Veneer              ro code  0x1000f9a8      0x8  - Linker created -
      Veneer              ro code  0x1000f9b0      0x8  - Linker created -
      .text               ro code  0x1000f9b8    0x138  ram_libc.o [7]
      Veneer              ro code  0x1000faf0      0x8  - Linker created -
      .text               ro code  0x1000faf8    0xaa0  update.o [2]
      .text               ro code  0x10010598    0xb50  wifi_simple_config.o [2]
      .text               ro code  0x100110e8    0xc4c  sockets.o [2]
      .text               ro code  0x10011d34    0x118  zc_bc.o [2]
      .text               ro code  0x10011e4c      0x6  ABImemclr4.o [12]
      .text               ro code  0x10011e54   0x15d4  wifi_conf.o [2]
      .text               ro code  0x10013428     0x24  sscanf.o [4]
      Veneer              ro code  0x1001344c      0x8  - Linker created -
      Veneer              ro code  0x10013454      0x8  - Linker created -
      Veneer              ro code  0x1001345c      0x8  - Linker created -
      .text               ro code  0x10013464    0x3b8  sys_api.o [2]
      .text               ro code  0x1001381c     0x26  def.o [2]
      .text               ro code  0x10013844    0x488  api_lib.o [2]
      .text               ro code  0x10013ccc     0x3c  vsnprint.o [4]
      .text               ro code  0x10013d08    0x1da  ip_addr.o [2]
      .text               ro code  0x10013ee4    0x1e6  sys_arch.o [2]
      .text               ro code  0x100140cc     0xe0  timer_api.o [2]
      .text               ro code  0x100141ac    0x860  tasks.o [2]
      .text               ro code  0x10014a0c    0x310  rsa.o [2]
      .text               ro code  0x10014d1c   0x1586  bignum.o [2]
      Veneer              ro code  0x100162a4      0x8  - Linker created -
      .text               ro code  0x100162ac    0x104  ram_libgloss_retarget.o [7]
      .text               ro code  0x100163b0     0x18  cmsis_os.o [2]
      .text               ro code  0x100163c8    0x1c0  heap_5.o [2]
      .text               ro code  0x10016588    0x56c  osdep_service.o [2]
      .text               ro code  0x10016af4    0x344  lwip_netconf.o [2]
      .text               ro code  0x10016e38    0x208  port.o [2]
      Veneer              ro code  0x10017040      0x8  - Linker created -
      Veneer              ro code  0x10017048      0x8  - Linker created -
      Veneer              ro code  0x10017050      0x8  - Linker created -
      Veneer              ro code  0x10017058      0x8  - Linker created -
      Veneer              ro code  0x10017060      0x8  - Linker created -
      .text               ro code  0x10017068    0xc34  wifi_simple_config_parser.o [8]
      Veneer              ro code  0x10017c9c      0x8  - Linker created -
      Veneer              ro code  0x10017ca4      0x8  - Linker created -
      Veneer              ro code  0x10017cac      0x8  - Linker created -
      Veneer              ro code  0x10017cb4      0x8  - Linker created -
      Veneer              ro code  0x10017cbc      0x8  - Linker created -
      Veneer              ro code  0x10017cc4      0x8  - Linker created -
      .text               ro code  0x10017ccc    0x8a0  rtw_promisc.o [8]
      .text               ro code  0x1001856c    0x45e  pbuf.o [2]
      .text               ro code  0x100189ca     0x74  netbuf.o [2]
      .text               ro code  0x10018a40    0x1f8  tcpip.o [2]
      .text               ro code  0x10018c38    0x3b8  igmp.o [2]
      .text               ro code  0x10018ff0     0x22  sys.o [2]
      .text               ro code  0x10019014    0xc84  rtk_wlan_if.o [8]
      .text               ro code  0x10019c98    0xc90  wifi_util.o [2]
      .text               ro code  0x1001a928     0xb4  wifi_ind.o [2]
      .text               ro code  0x1001a9dc    0x65a  dhcps.o [2]
      .text               ro code  0x1001b038    0x480  wifi_promisc.o [2]
      .text               ro code  0x1001b4b8    0x514  xscanfsmall_nomb.o [4]
      .text               ro code  0x1001b9cc     0x68  osdep_api.o [2]
      Veneer              ro code  0x1001ba34      0x8  - Linker created -
      Veneer              ro code  0x1001ba3c      0x8  - Linker created -
      Veneer              ro code  0x1001ba44      0x8  - Linker created -
      Veneer              ro code  0x1001ba4c      0x8  - Linker created -
      .text               ro code  0x1001ba54     0xf8  hal_log_uart.o [6]
      .text               ro code  0x1001bb4c    0xb7c  api_msg.o [2]
      .text               ro code  0x1001c6c8     0xd0  memp.o [2]
      .text               ro code  0x1001c798    0x150  xprintftiny.o [4]
      .text               ro code  0x1001c8e8    0x4a2  queue.o [2]
      Veneer              ro code  0x1001cd8c      0x8  - Linker created -
      Veneer              ro code  0x1001cd94      0x8  - Linker created -
      Veneer              ro code  0x1001cd9c      0x8  - Linker created -
      .text               ro code  0x1001cda4    0x448  rtl8195a_timer.o [2]
      .text               ro code  0x1001d1ec     0x8e  list.o [2]
      .text               ro code  0x1001d27c    0x2f4  timers.o [2]
      Veneer              ro code  0x1001d570      0x8  - Linker created -
      .text               ro code  0x1001d578     0xc4  freertos_pmu.o [2]
      .text               ro code  0x1001d63c      0x6  ABImemclr.o [12]
      .text               ro code  0x1001d644    0x14a  tcm_heap.o [2]
      .text               ro code  0x1001d790    0x142  netif.o [2]
      .text               ro code  0x1001d8d4    0xc16  dhcp.o [2]
      .text               ro code  0x1001e4ec    0x2c2  autoip.o [2]
      .text               ro code  0x1001e7b0     0x66  ABImemset.o [12]
      .text               ro code  0x1001e818    0x710  rtw_pwrctrl.o [8]
      .text               ro code  0x1001ef28    0x3d8  hal_intf.o [8]
      Veneer              ro code  0x1001f300      0x8  - Linker created -
      .text               ro code  0x1001f308   0x11b8  rtw_recv.o [8]
      .text               ro code  0x100204c0    0x350  freertos_skbuff.o [8]
      Veneer              ro code  0x10020810      0x8  - Linker created -
      .text               ro code  0x10020818   0x14a4  rtw_mlme.o [8]
      .text               ro code  0x10021cbc    0xb2c  tcp.o [2]
      .text               ro code  0x100227e8    0x260  mem.o [2]
      .text               ro code  0x10022a48    0x234  lwip_timers.o [2]
      .text               ro code  0x10022c7c    0x6c8  etharp.o [2]
      .text               ro code  0x10023344    0x358  ip.o [2]
      .text               ro code  0x1002369c     0x2e  init.o [2]
      .text               ro code  0x100236ca    0x132  inet_chksum.o [2]
      .text               ro code  0x100237fc    0x580  freertos_service.o [2]
      .text               ro code  0x10023d7c    0xa80  freertos_intfs.o [8]
      .text               ro code  0x100247fc    0x268  lwip_intf.o [2]
      .text               ro code  0x10024a64    0x410  udp.o [2]
      .text               ro code  0x10024e74     0x16  strchr.o [12]
      .text               ro code  0x10024e8a     0x86  xstol.o [4]
      .text               ro code  0x10024f10    0x19c  xstoul.o [4]
      .text               ro code  0x100250ac    0x174  raw.o [2]
      .text               ro code  0x10025220    0xa4a  tcp_out.o [2]
      .text               ro code  0x10025c6c    0x4a4  dns.o [2]
      .text               ro code  0x10026110     0x36  strlen.o [12]
      .text               ro code  0x10026148     0x30  us_ticker.o [2]
      Veneer              ro code  0x10026178      0x8  - Linker created -
      .text               ro code  0x10026180    0x1b8  gpio_api.o [2]
      .text               ro code  0x10026338     0x38  hal_pinmux.o [6]
      .text               ro code  0x10026370     0x14  sleep.o [2]
      .text               ro code  0x10026384    0x370  rtw_intfs.o [8]
      Veneer              ro code  0x100266f4      0x8  - Linker created -
      .text               ro code  0x100266fc    0xf64  rtw_wlan_util.o [8]
      .text               ro code  0x10027660     0x54  rtw_io.o [8]
      .text               ro code  0x100276b4    0xf50  rtw_cmd.o [8]
      .text               ro code  0x10028604   0x1af8  rtl8195a_pmu_task.o [8]
      .text               ro code  0x1002a0fc    0xb0c  hal_com.o [8]
      Veneer              ro code  0x1002ac08      0x8  - Linker created -
      Veneer              ro code  0x1002ac10      0x8  - Linker created -
      Veneer              ro code  0x1002ac18      0x8  - Linker created -
      Veneer              ro code  0x1002ac20      0x8  - Linker created -
      .text               ro code  0x1002ac28   0x159c  rtw_ap.o [8]
      .text               ro code  0x1002c1c4    0x1f4  freertos_recv.o [8]
      Veneer              ro code  0x1002c3b8      0x8  - Linker created -
      Veneer              ro code  0x1002c3c0      0x8  - Linker created -
      Veneer              ro code  0x1002c3c8      0x8  - Linker created -
      Veneer              ro code  0x1002c3d0      0x8  - Linker created -
      Veneer              ro code  0x1002c3d8      0x8  - Linker created -
      Veneer              ro code  0x1002c3e0      0x8  - Linker created -
      .text               ro code  0x1002c3e8    0x30c  rtw_security.o [8]
      .text               ro code  0x1002c6f4    0x5ec  rtw_sta_mgt.o [8]
      Veneer              ro code  0x1002cce0      0x8  - Linker created -
      Veneer              ro code  0x1002cce8      0x8  - Linker created -
      Veneer              ro code  0x1002ccf0      0x8  - Linker created -
      .text               ro code  0x1002ccf8   0x1644  rtw_xmit.o [8]
      Veneer              ro code  0x1002e33c      0x8  - Linker created -
      Veneer              ro code  0x1002e344      0x8  - Linker created -
      Veneer              ro code  0x1002e34c      0x8  - Linker created -
      .text               ro code  0x1002e354   0x4704  rtw_mlme_ext.o [8]
      .text               ro code  0x10032a58    0xf1c  lxbus_ops.o [8]
      Veneer              ro code  0x10033974      0x8  - Linker created -
      .text               ro code  0x1003397c   0x25f0  freertos_ioctl.o [8]
      .text               ro code  0x10035f6c     0xfa  freertos_xmit.o [8]
      .text               ro code  0x10036068    0x55a  rtw_ioctl_set.o [8]
      .text               ro code  0x100365c4    0x4f4  ip_frag.o [2]
      .text               ro code  0x10036ab8    0xeac  tcp_in.o [2]
      .text               ro code  0x10037964    0x188  icmp.o [2]
      .text               ro code  0x10037aec     0x60  netdev.o [8]
      .text               ro code  0x10037b4c    0xa8c  lxbus_halinit.o [8]
      .text               ro code  0x100385d8    0x1f2  rtw_ieee80211.o [8]
      .text               ro code  0x100387cc     0x38  hci_intfs.o [8]
      .text               ro code  0x10038804    0x14c  ethernetif.o [2]
      .text               ro code  0x10038950      0xc  errno.o [4]
      .text               ro code  0x1003895c     0x58  memchr.o [12]
      .text               ro code  0x100389b4      0x2  pinmap.o [2]
      Veneer              ro code  0x100389b8      0x8  - Linker created -
      .text               ro code  0x100389c0    0x80c  hal_soc_ps_monitor.o [2]
      Veneer              ro code  0x100391cc      0x8  - Linker created -
      Veneer              ro code  0x100391d4      0x8  - Linker created -
      Veneer              ro code  0x100391dc      0x8  - Linker created -
      Veneer              ro code  0x100391e4      0x8  - Linker created -
      Veneer              ro code  0x100391ec      0x8  - Linker created -
      Veneer              ro code  0x100391f4      0x8  - Linker created -
      Veneer              ro code  0x100391fc      0x8  - Linker created -
      .text               ro code  0x10039204   0x19bc  rtw_psk.o [8]
      .text               ro code  0x1003abc0    0x526  rtl8195a_dm.o [8]
      .text               ro code  0x1003b0e8    0x776  Hal8195ARateAdaptive.o [8]
      .text               ro code  0x1003b860   0x18b4  hal_com_phycfg.o [8]
      .text               ro code  0x1003d114    0x8f4  rtl8195a_xmit.o [8]
      .text               ro code  0x1003da08    0x2bc  rtl8195a_rxdesc.o [8]
      Veneer              ro code  0x1003dcc4      0x8  - Linker created -
      Veneer              ro code  0x1003dccc      0x8  - Linker created -
      .text               ro code  0x1003dcd4    0x67c  rtw_efuse.o [8]
      Veneer              ro code  0x1003e350      0x8  - Linker created -
      .text               ro code  0x1003e358   0x24fc  rtl8195a_hal_init.o [8]
      Veneer              ro code  0x10040854      0x8  - Linker created -
      Veneer              ro code  0x1004085c      0x8  - Linker created -
      Veneer              ro code  0x10040864      0x8  - Linker created -
      .text               ro code  0x1004086c    0x9c4  rtl8195a_phycfg.o [8]
      .text               ro code  0x10041230   0x1844  HalPhyRf_8195A.o [8]
      .text               ro code  0x10042a74     0xdc  HalPwrSeqCmd.o [8]
      .text               ro code  0x10042b50     0x18  wlan_ram_map.o [8]
      .text               ro code  0x10042b68    0x3a4  PhyDM_Adaptivity.o [8]
      .text               ro code  0x10042f0c    0x3e0  phydm.o [8]
      .text               ro code  0x100432ec     0x58  phydm_interface.o [8]
      Veneer              ro code  0x10043344      0x8  - Linker created -
      Veneer              ro code  0x1004334c      0x8  - Linker created -
      .text               ro code  0x10043354    0x3fc  phydm_HWConfig.o [8]
      .text               ro code  0x10043750    0x548  rtl8195a_cmd.o [8]
      .text               ro code  0x10043c98    0x398  phydm_RaInfo.o [8]
      Veneer              ro code  0x10044030      0x8  - Linker created -
      .text               ro code  0x10044038    0x4b6  phydm_DIG.o [8]
      .text               ro code  0x100444f0    0x170  rtl8195a_rf6052.o [8]
      .text               ro code  0x10044660    0x4f4  HalPhyRf.o [8]
      Veneer              ro code  0x10044b54      0x8  - Linker created -
      Veneer              ro code  0x10044b5c      0x8  - Linker created -
      Veneer              ro code  0x10044b64      0x8  - Linker created -
      .text               ro code  0x10044b6c     0x7c  phydm_CfoTracking.o [8]
      .text               ro code  0x10044be8    0x244  phydm_PowerTracking.o [8]
      .text               ro code  0x10044e2c     0x14  phydm_debug.o [8]
      .text               ro code  0x10044e40     0x1e  U64Shr.o [12]
      .text               ro code  0x10044e60    0x1e0  HalHWImg8195A_RF.o [8]
      .text               ro code  0x10045040    0x1d8  HalHWImg8195A_BB.o [8]
      .text               ro code  0x10045218    0x134  HalHWImg8195A_MAC.o [8]
      .text               ro code  0x1004534c    0x17c  rtl8195a_pmu_cmd.o [8]
      .text               ro code  0x100454c8     0xda  phydm_RegConfig8195A.o [8]
      .text               ro code  0x100455a4    0x126  analogin_api.o [2]
      .text               ro code  0x100456cc    0x7d4  hal_adc.o [2]
      Veneer              ro code  0x10045ea0      0x8  - Linker created -
      Veneer              ro code  0x10045ea8      0x8  - Linker created -
      Veneer              ro code  0x10045eb0      0x8  - Linker created -
      .text               ro code  0x10045eb8    0xe0c  atcmd_sys.o [2]
      .text               ro code  0x10046cc4    0x3e0  log_service.o [2]
      .text               ro code  0x100470a4   0x1758  atcmd_wifi.o [2]
      .text               ro code  0x100487fc    0x22c  ping_test.o [2]
      .text               ro code  0x10048a28    0x8c0  wifi_wps_config.o [2]
      Veneer              ro code  0x100492e8      0x8  - Linker created -
      .text               ro code  0x100492f0     0x84  os_freertos.o [9]
      Veneer              ro code  0x10049374      0x8  - Linker created -
      Veneer              ro code  0x1004937c      0x8  - Linker created -
      Veneer              ro code  0x10049384      0x8  - Linker created -
      Veneer              ro code  0x1004938c      0x8  - Linker created -
      .text               ro code  0x10049394    0x3c8  wps_common.o [9]
      .text               ro code  0x1004975c     0x36  dh_group5.o [9]
      .text               ro code  0x10049794     0xea  wpabuf.o [9]
      Veneer              ro code  0x10049880      0x8  - Linker created -
      .text               ro code  0x10049888    0x334  wps_attr_build.o [9]
      .text               ro code  0x10049bbc     0xfe  dh_groups.o [9]
      .text               ro code  0x10049cbc    0x158  random.o [9]
      Veneer              ro code  0x10049e14      0x8  - Linker created -
      Veneer              ro code  0x10049e1c      0x8  - Linker created -
      Veneer              ro code  0x10049e24      0x8  - Linker created -
      Veneer              ro code  0x10049e2c      0x8  - Linker created -
      Veneer              ro code  0x10049e34      0x8  - Linker created -
      .text               ro code  0x10049e3c     0x9a  crypto_internal-modexp.o [9]
      .text               ro code  0x10049ed8     0x1c  example_entry.o [2]
      .text               ro code  0x10049ef4    0x1d4  example_wlan_fast_connect.o [2]
      .text               ro code  0x1004a0c8     0x24  printf.o [4]
      .text               ro code  0x1004a0ec     0x90  hal_32k.o [2]
      .text               ro code  0x1004a17c     0x68  hal_gdma.o [2]
      .text               ro code  0x1004a1e4     0x3c  hal_timer.o [2]
      .text               ro code  0x1004a220    0x318  rtl8195a_adc.o [2]
      Veneer              ro code  0x1004a538      0x8  - Linker created -
      .text               ro code  0x1004a540    0x36c  rtl8195a_gdma.o [2]
      Veneer              ro code  0x1004a8ac      0x8  - Linker created -
      Veneer              ro code  0x1004a8b4      0x8  - Linker created -
      .text               ro code  0x1004a8bc     0x90  rtl_consol.o [2]
      .text               ro code  0x1004a94c     0x6c  strncpy_unaligned.o [12]
      .text               ro code  0x1004a9b8     0x14  system_8195a.o [2]
      .text               ro code  0x1004a9cc     0xdc  wlan_network.o [2]
      Veneer              ro code  0x1004aaa8      0x8  - Linker created -
      Veneer              ro code  0x1004aab0      0x8  - Linker created -
      .text               ro code  0x1004aab8    0x1f8  startup.o [6]
      Veneer              ro code  0x1004acb0      0x8  - Linker created -
      .text               ro code  0x1004acb8     0x24  hal_crypto.o [6]
      .text               ro code  0x1004acdc     0x78  freertos_isr.o [8]
      .text               ro code  0x1004ad54    0x598  wps_protocol_handler.o [9]
      .text               ro code  0x1004b2ec    0x3a0  eap_wsc.o [9]
      .text               ro code  0x1004b68c    0x1a4  wps.o [9]
      .text               ro code  0x1004b830    0x11c  eap_common.o [9]
      .text               ro code  0x1004b94c     0x3e  eap_wsc_common.o [9]
      .text               ro code  0x1004b98c    0x2f8  wps_dev_attr.o [9]
      .text               ro code  0x1004bc84    0xa4e  wps_enrollee.o [9]
      .text               ro code  0x1004c6d2    0x476  wps_attr_parse.o [9]
      .text               ro code  0x1004cb48    0x1c6  wps_attr_process.o [9]
      .text               ro code  0x1004cd0e    0x838  wps_validate.o [9]
      .text               ro code  0x1004d548     0x10  hal_common.o [6]
      .text               ro code  0x1004d558     0x24  app_start.o [6]
      .text               ro code  0x1004d57c    0x124  lxbus_hci_intf.o [8]
      .text               ro code  0x1004d6a0     0x58  lxbus_intf.o [8]
      .text               ro code  0x1004d6f8     0x28  data_init.o [12]
      .text               ro code  0x1004d720     0x2c  low_level_io.o [2]
      .text               ro code  0x1004d74c      0x4  rtl8195a_led.o [8]
      .text               ro code  0x1004d750     0x16  xprout.o [4]
      .text               ro code  0x1004d766     0x28  putchar.o [4]
      CODE                ro code  0x1004d790     0x94  portasm.o [2]
      __DLIB_PERTHREAD    const    0x1004d824     0x8c  rand.o [4]
      __DLIB_PERTHREAD    const    0x1004d8b0      0x4  errno.o [4]
    .ram.data                      0x1004d8b4   0x2fcc  <Block>
      .data.log_init               0x1004d8b4      0xc  <Block>
        .data.log_init    const    0x1004d8b4      0x4  atcmd_sys.o [2]
        .data.log_init    const    0x1004d8b8      0x4  atcmd_wifi.o [2]
        .data.log_init    const    0x1004d8bc      0x4  log_service.o [2]
      .data               const    0x1004d8c0     0x80  ac_hal.o [2]
      .data               const    0x1004d940      0x8  atcmd_sys.o [2]
      .data               const    0x1004d948     0xc0  atcmd_sys.o [2]
      .data               const    0x1004da08    0x180  atcmd_wifi.o [2]
      .data               const    0x1004db88     0x78  dhcps.o [2]
      .data               const    0x1004dc00      0x4  freertos_pmu.o [2]
      .data               const    0x1004dc04      0xc  freertos_pmu.o [2]
      .data               const    0x1004dc10      0x4  freertos_service.o [2]
      .data               const    0x1004dc14     0x20  log_service.o [2]
      .data               const    0x1004dc34      0x4  port.o [2]
      .data               const    0x1004dc38      0x4  system_8195a.o [2]
      .data               const    0x1004dc3c     0x9c  tasks.o [2]
      .data               const    0x1004dcd8     0x20  tcp.o [2]
      .data               const    0x1004dcf8      0x8  udp.o [2]
      .data               const    0x1004dd00     0x10  wifi_conf.o [2]
      .data               const    0x1004dd10    0x1f4  zc_configuration.o [2]
      .data               const    0x1004df04     0x14  zc_hf_adpter.o [2]
      .data               const    0x1004df18      0x8  zc_hf_adpter.o [2]
      .data               const    0x1004df20      0x8  rtw_psk.o [8]
      .data               const    0x1004df28     0xd4  wifi_simple_config_parser.o [8]
      .data               const    0x1004dffc      0x8  wifi_simple_config_parser.o [8]
      .data               const    0x1004e004     0xa8  rtw_mlme_ext.o [8]
      .data               const    0x1004e0ac     0x38  freertos_ioctl.o [8]
      .data               const    0x1004e0e4    0x1b0  rom_rtw_message.o [8]
      .data               const    0x1004e294      0x8  rtw_xmit.o [8]
      .data               const    0x1004e29c     0x40  Hal8195ARateAdaptive.o [8]
      .data               const    0x1004e2dc     0x40  Hal8195ARateAdaptive.o [8]
      .data               const    0x1004e31c     0x14  Hal8195ARateAdaptive.o [8]
      .data               const    0x1004e330     0xa0  Hal8195APwrSeq.o [8]
      .data               const    0x1004e3d0     0xa0  Hal8195APwrSeq.o [8]
      .data               const    0x1004e470     0x14  dh_groups.o [9]
      .data               const    0x1004e484    0x210  HalHWImg8195A_BB.o [8]
      .data               const    0x1004e694    0x678  HalHWImg8195A_BB.o [8]
      .data               const    0x1004ed0c     0x90  HalHWImg8195A_BB.o [8]
      .data               const    0x1004ed9c    0x308  HalHWImg8195A_MAC.o [8]
      .data               const    0x1004f0a4    0x3a0  HalHWImg8195A_RF.o [8]
      .data               const    0x1004f444     0x80  HalHWImg8195A_RF.o [8]
      .data               const    0x1004f4c4     0x80  HalHWImg8195A_RF.o [8]
      .data               const    0x1004f544     0x80  HalHWImg8195A_RF.o [8]
      .data               const    0x1004f5c4   0x1260  HalHWImg8195A_RF.o [8]
      .data               const    0x10050824      0x2  tcp.o [2]
      .iar.init_table     const    0x10050828     0x58  - Linker created -
  .ram.bss                         0x10050880   0xaa20  <Block>
    .bss                  zero     0x10050880    0x500  hal_crypto.o [6]
    .bss                  zero     0x10050d80    0x340  rtw_mlme_ext.o [8]
    .bss                  zero     0x100510c0      0x8  ac_hal.o [2]
    .bss                  zero     0x100510c8    0x200  ac_hal.o [2]
    .bss                  zero     0x100512c8     0x38  atcmd_wifi.o [2]
    .bss                  zero     0x10051300     0x78  atcmd_wifi.o [2]
    .bss                  zero     0x10051378      0x4  atcmd_wifi.o [2]
    .bss                  zero     0x1005137c    0x1b8  bignum.o [2]
    .bss                  zero     0x10051534   0x16b0  bignum.o [2]
    .bss                  zero     0x10052be4     0x34  dhcp.o [2]
    .bss                  zero     0x10052c18      0x4  dhcp.o [2]
    .bss                  zero     0x10052c1c    0x214  dns.o [2]
    .bss                  zero     0x10052e30    0x460  dns.o [2]
    .bss                  zero     0x10053290     0xc8  etharp.o [2]
    .bss                  zero     0x10053358      0x4  ethernetif.o [2]
    .bss                  zero     0x1005335c      0x4  example_wlan_fast_connect.o [2]
    .bss                  zero     0x10053360      0xc  hal_adc.o [2]
    .bss                  zero     0x1005336c     0x2c  hal_adc.o [2]
    .bss                  zero     0x10053398    0x290  hal_soc_ps_monitor.o [2]
    .bss                  zero     0x10053628     0x3c  heap_5.o [2]
    .bss                  zero     0x10053664      0xc  igmp.o [2]
    .bss                  zero     0x10053670     0x10  ip.o [2]
    .bss                  zero     0x10053680     0x10  ip_addr.o [2]
    .bss                  zero     0x10053690      0x8  ip_frag.o [2]
    .bss                  zero     0x10053698    0x100  log_service.o [2]
    .bss                  zero     0x10053798     0x70  log_service.o [2]
    .bss                  zero     0x10053808     0x78  lwip_netconf.o [2]
    .bss                  zero     0x10053880      0x4  lwip_timers.o [2]
    .bss                  zero     0x10053884      0x4  lwip_timers.o [2]
    .bss                  zero     0x10053888      0xc  netif.o [2]
    .bss                  zero     0x10053894      0x4  osdep_service.o [2]
    .bss                  zero     0x10053898     0x28  ping_test.o [2]
    .bss                  zero     0x100538c0      0xc  port.o [2]
    .bss                  zero     0x100538cc      0x4  raw.o [2]
    .bss                  zero     0x100538d0    0x108  rsa.o [2]
    .bss                  zero     0x100539d8     0x40  rsa.o [2]
    .bss                  zero     0x10053a18     0x18  rtl8195a_timer.o [2]
    .bss                  zero     0x10053a30     0x60  sockets.o [2]
    .bss                  zero     0x10053a90      0x8  sockets.o [2]
    .bss                  zero     0x10053a98     0x34  sys_arch.o [2]
    .bss                  zero     0x10053acc     0xdc  tasks.o [2]
    .bss                  zero     0x10053ba8      0xc  tcm_heap.o [2]
    .bss                  zero     0x10053bb4     0x30  tcp_in.o [2]
    .bss                  zero     0x10053be4      0xc  tcpip.o [2]
    .bss                  zero     0x10053bf0     0x38  timers.o [2]
    .bss                  zero     0x10053c28      0x4  update.o [2]
    .bss                  zero     0x10053c2c     0x24  wifi_conf.o [2]
    .bss                  zero     0x10053c50      0x8  wifi_conf.o [2]
    .bss                  zero     0x10053c58     0x18  wifi_conf.o [2]
    .bss                  zero     0x10053c70    0x150  wifi_ind.o [2]
    .bss                  zero     0x10053dc0      0x8  wifi_promisc.o [2]
    .bss                  zero     0x10053dc8     0x78  wifi_promisc.o [2]
    .bss                  zero     0x10053e40     0x40  wifi_simple_config.o [2]
    .bss                  zero     0x10053e80     0x28  wifi_wps_config.o [2]
    .bss                  zero     0x10053ea8     0x10  zc_bc.o [2]
    .bss                  zero     0x10053eb8     0x28  zc_client_manager.o [2]
    .bss                  zero     0x10053ee0     0x78  zc_hf_adpter.o [2]
    .bss                  zero     0x10053f58    0x260  zc_hf_adpter.o [2]
    .bss                  zero     0x100541b8    0x260  zc_hf_adpter.o [2]
    .bss                  zero     0x10054418     0x28  zc_hf_adpter.o [2]
    .bss                  zero     0x10054440    0x720  zc_hf_adpter.o [2]
    .bss                  zero     0x10054b60     0x28  zc_hf_adpter.o [2]
    .bss                  zero     0x10054b88    0x258  zc_hf_adpter.o [2]
    .bss                  zero     0x10054de0    0x83c  zc_hf_adpter.o [2]
    .bss                  zero     0x1005561c     0x50  zc_hf_adpter.o [2]
    .bss                  zero     0x1005566c     0x14  zc_hf_adpter.o [2]
    .bss                  zero     0x10055680      0xc  zc_hf_adpter.o [2]
    .bss                  zero     0x1005568c     0x88  zc_protocol_controller.o [2]
    .bss                  zero     0x10055714     0x50  zc_timer.o [2]
    .bss                  zero     0x10055764      0x8  startup.o [6]
    .bss                  zero     0x1005576c      0x4  ram_libc.o [7]
    .bss                  zero     0x10055770     0x40  rtk_wlan_if.o [8]
    .bss                  zero     0x100557b0      0x4  freertos_intfs.o [8]
    .bss                  zero     0x100557b4      0xc  freertos_intfs.o [8]
    .bss                  zero     0x100557c0     0x14  freertos_intfs.o [8]
    .bss                  zero     0x100557d4    0x11c  rtw_psk.o [8]
    .bss                  zero     0x100558f0     0x44  rtw_psk.o [8]
    .bss                  zero     0x10055934      0x4  freertos_skbuff.o [8]
    .bss                  zero     0x10055938    0x1b8  freertos_skbuff.o [8]
    .bss                  zero     0x10055af0     0x18  freertos_skbuff.o [8]
    .bss                  zero     0x10055b08      0x4  freertos_isr.o [8]
    .bss                  zero     0x10055b0c      0x8  rtw_promisc.o [8]
    .bss                  zero     0x10055b14      0x4  rtw_mlme.o [8]
    .bss                  zero     0x10055b18      0x4  wifi_simple_config_parser.o [8]
    .bss                  zero     0x10055b1c     0x10  wps_protocol_handler.o [9]
    .bss                  zero     0x10055b2c      0x4  ram_libgloss_retarget.o [7]
    .bss                  zero     0x10055b30      0x4  rtl8195a_pmu_task.o [8]
    .bss                  zero     0x10055b34   0x20e0  lxbus_ops.o [8]
    .bss                  zero     0x10057c14     0x1c  eap_wsc.o [9]
    .bss                  zero     0x10057c30     0x80  random.o [9]
    .bss                  zero     0x10057cb0     0x20  random.o [9]
    .bss                  zero     0x10057cd0      0x2  ip.o [2]
    .bss                  zero     0x10057cd2      0x1  dns.o [2]
    .bss                  zero     0x10057cd3      0x1  etharp.o [2]
    .bss                  zero     0x10057cd4      0x1  pbuf.o [2]
    .bss                  zero     0x10057cd5      0x1  tcp.o [2]
    .bss                  zero     0x10057cd6      0x1  wifi_promisc.o [2]
    .bss                  zero     0x10057cd7      0x1  zc_hf_adpter.o [2]
    .bss                  zero     0x10057cd8      0x1  rtl8195a_pmu_task.o [8]
    .bss                  zero     0x10057cd9      0x1  rtw_mlme_ext.o [8]
    .bss                  zero     0x10057cda      0x1  lxbus_ops.o [8]
    .hal.flash.data       zero     0x10057cdc     0x90  hal_spi_flash_ram.o [6]
    .hal.gpio.data        zero     0x10057d6c    0x12c  hal_gpio.o [2]
    .bdsram.data          zero     0x10057e98   0x3400  freertos_skbuff.o [8]
    .bdsram.data          zero     0x1005b298      0x8  freertos_skbuff.o [8]
                                 - 0x1005b2a0  0x552a0

"A4":                                           0xf000
  .bf_data                         0x10061000   0xf000  <Block>
    .bfsram.data          zero     0x10061000   0xf000  heap_5.o [2]
                                 - 0x10070000   0xf000

"A6":                                           0xf338
  TCM_overlay                      0x1fff0000   0xf338  <Overlay>
    part 1:
      .bss                zero     0x1fff0000   0x1424  mem.o [2]
      .bss                zero     0x1fff1424   0x3f10  memp.o [2]
      .tcm.heap           zero     0x1fff5334   0xa000  tcm_heap.o [2]
      .heap                        0x1ffff334      0x4  <Block>
        .heap.stdlib      zero     0x1ffff334      0x1  ram_libgloss_retarget.o [7]
    part 2:
      IMAGE1_DBG                   0x1fff0000   0x24c0  <Block>
        .ram.start.table           0x1fff0000     0x14  <Block>
          .start.ram.data.a
                          const    0x1fff0000      0x4  startup.o [6]
          .start.ram.data.b
                          const    0x1fff0004      0x4  startup.o [6]
          .start.ram.data.c
                          const    0x1fff0008      0x4  startup.o [6]
          .start.ram.data.d
                          const    0x1fff000c      0x4  startup.o [6]
          .start.ram.data.e
                          const    0x1fff0010      0x4  startup.o [6]
        .ram_image1.data           0x1fff0014   0x14d0  <Block>
          .image1.validate.rodata
                          const    0x1fff0014      0x8  startup.o [6]
          .cutb.ram.data  const    0x1fff001c     0x10  hal_sdr_controller.o [2]
          .cutb.ram.data  const    0x1fff002c     0x1c  hal_sdr_controller.o [2]
          .cutb.ram.data  const    0x1fff0048     0x34  hal_sdr_controller.o [2]
          .cutb.ram.data  const    0x1fff007c     0x14  hal_sdr_controller.o [2]
          .cutb.ram.data  const    0x1fff0090      0x4  hal_sdr_controller.o [2]
          .cutb.ram.data  zero     0x1fff0094   0x1000  hal_sdr_controller.o [2]
          .hal.ram.data   const    0x1fff1098    0x430  rom.o [11]
          .hal.ram.data   const    0x1fff14c8      0xc  hal_sdr_controller.o [2]
          .hal.ram.data   zero     0x1fff14d4     0x10  startup.o [6]
        .ram_image1.bss            0x1fff14e4      0x0  <Block>
        .ram_image1.text           0x1fff14e4    0xfdc  <Block>
          Veneer          ro code  0x1fff14e4      0x8  - Linker created -
          Veneer          ro code  0x1fff14ec      0x8  - Linker created -
          Veneer          ro code  0x1fff14f4      0x8  - Linker created -
          Veneer          ro code  0x1fff14fc      0x8  - Linker created -
          Veneer          ro code  0x1fff1504      0x8  - Linker created -
          Veneer          ro code  0x1fff150c      0x8  - Linker created -
          Veneer          ro code  0x1fff1514      0x8  - Linker created -
          Veneer          ro code  0x1fff151c      0x8  - Linker created -
          Veneer          ro code  0x1fff1524      0x8  - Linker created -
          Veneer          ro code  0x1fff152c      0x8  - Linker created -
          Veneer          ro code  0x1fff1534      0x8  - Linker created -
          Veneer          ro code  0x1fff153c      0x8  - Linker created -
          Veneer          ro code  0x1fff1544      0x8  - Linker created -
          Veneer          ro code  0x1fff154c      0x8  - Linker created -
          Veneer          ro code  0x1fff1554      0x8  - Linker created -
          Veneer          ro code  0x1fff155c      0x8  - Linker created -
          Veneer          ro code  0x1fff1564      0x8  - Linker created -
          Veneer          ro code  0x1fff156c      0x8  - Linker created -
          Veneer          ro code  0x1fff1574      0x8  - Linker created -
          Veneer          ro code  0x1fff157c      0x8  - Linker created -
          Veneer          ro code  0x1fff1584      0x8  - Linker created -
          Veneer          ro code  0x1fff158c      0x8  - Linker created -
          Veneer          ro code  0x1fff1594      0x8  - Linker created -
          .hal.ram.text   ro code  0x1fff159c    0x700  startup.o [6]
          Veneer          ro code  0x1fff1c9c      0x8  - Linker created -
          .hal.sdrc.text  ro code  0x1fff1ca4    0x81c  hal_sdr_controller.o [2]
                                 - 0x1ffff338   0xf338


*******************************************************************************
*** INIT TABLE
***

          Address     Size
          -------     ----
Zero (__iar_zero_init3)
    8 destination ranges, total size 0x290a4:
          0x10000384   0x350
          0x10050880  0x745b
          0x10057cdc    0x90
          0x10057d6c   0x12c
          0x10057e98  0x3408
          0x10061000  0xf000
          0x1fff0000  0xf334
          0x1ffff334     0x1



*******************************************************************************
*** MODULE SUMMARY
***

    Module                       ro code  rw code  ro data  rw data
    ------                       -------  -------  -------  -------
D:\工作资料\斐联\sdk-ameba1-v3.4b\project\realtek_ameba1_va0_example\EWARM-RELEASE\..\..\..\component\soc\realtek\8195a\misc\bsp\image: [1]
    ram_1.r.bin                                     14 028
    ---------------------------------------------------------------
    Total:                                          14 028

D:\工作资料\斐联\sdk-ameba1-v3.4b\project\realtek_ameba1_va0_example\EWARM-RELEASE\Debug\Obj: [2]
    ac_api.o                         432
    ac_hal.o                         224                        648
    aes_cbc.o                        434
    aes_core.o                     8 838             4 096
    analogin_api.o                   294
    api_lib.o                      1 160
    api_msg.o                      2 940
    atcmd_sys.o                    3 596                96      204
    atcmd_wifi.o                   5 976               424      568
    autoip.o                         706
    bignum.o                       5 510                      6 248
    cmsis_os.o                        24
    crc.o                             70
    def.o                             38
    dhcp.o                         3 094                         56
    dhcps.o                        1 626                        120
    dns.o                          1 188                      1 653
    etharp.o                       1 736                        201
    ethernetif.o                     332                          4
    example_entry.o                   28
    example_wlan_fast_connect.o      468                          4
    flash_api.o                      736
    freertos_pmu.o                   196                         16
    freertos_service.o             1 408               292        4
    gpio_api.o                       440
    hal_32k.o                        144
    hal_adc.o                      2 004                         56
    hal_gdma.o                       104
    hal_gpio.o                       116                        300
    hal_soc_ps_monitor.o           2 060                        656
    hal_timer.o                       60
    heap_5.o                         448                     61 500
    icmp.o                           392
    igmp.o                           952                         12
    inet_chksum.o                    306
    init.o                            46
    ip.o                             856                         18
    ip_addr.o                        474                 8       16
    ip_frag.o                      1 268                          8
    list.o                           142
    log_service.o                    992                16      404
    low_level_io.o                    44
    lwip_intf.o                      616
    lwip_netconf.o                   836                        120
    lwip_timers.o                    564                          8
    main.o                            72
    mem.o                            608
    memp.o                           208
    netbuf.o                         116
    netif.o                          322                         12
    osdep_api.o                      104
    osdep_service.o                1 388                          4
    pbuf.o                         1 118                          1
    ping_test.o                      556                         40
    pinmap.o                           2
    port.o                           520                         16
    portasm.o                        148
    queue.o                        1 186
    raw.o                            372                          4
    rsa.o                            784                        328
    rtl8195a_adc.o                   792
    rtl8195a_gdma.o                  876
    rtl8195a_timer.o               1 096                         24
    rtl_consol.o                     580                        848
    sleep.o                           20
    sockets.o                      3 148                        104
    sys.o                             34
    sys_api.o                        952
    sys_arch.o                       486                         52
    system_8195a.o                    20                          4
    tasks.o                        2 144                        376
    tcm_heap.o                       330                         12
    tcp.o                          2 860                         35
    tcp_in.o                       3 756                         48
    tcp_out.o                      2 634
    tcpip.o                          504                         12
    timer_api.o                      224
    timers.o                         756                         56
    udp.o                          1 040                          8
    update.o                       2 720                32        4
    us_ticker.o                       48
    wifi_conf.o                    5 588                         84
    wifi_ind.o                       180                        336
    wifi_promisc.o                 1 152                        129
    wifi_simple_config.o           2 896                         64
    wifi_util.o                    3 216
    wifi_wps_config.o              2 240                         40
    wlan_network.o                   220
    zc_bc.o                          280                         16
    zc_client_manager.o              714                         40
    zc_cloud_event.o                 432
    zc_common.o                      464
    zc_configuration.o               552                        500
    zc_hf_adpter.o                 3 856                      6 089
    zc_message_queue.o               600
    zc_moudle_manager.o              668
    zc_protocol_controller.o       3 760                        136
    zc_sec_engine.o                1 144
    zc_timer.o                       284                         80
    ---------------------------------------------------------------
    Total:                       114 688             4 964   82 326

command line: [3]
    ---------------------------------------------------------------
    Total:

dl7M_tln.a: [4]
    errno.o                           12                          4
    printf.o                          36
    putchar.o                         40
    rand.o                           224                        140
    sscanf.o                          36
    vsnprint.o                        60
    xprintftiny.o                    336
    xprout.o                          22
    xscanfsmall_nomb.o             1 300
    xsnprout.o                        26
    xsscin.o                          30
    xstol.o                          134
    xstoul.o                         412
    xtls.o                             2
    ---------------------------------------------------------------
    Total:                         2 670                        144

lib_mdns.a: [5]
    ---------------------------------------------------------------
    Total:

lib_platform.a: [6]
    app_start.o                       36
    hal_common.o                      16
    hal_crypto.o                      36                      1 280
    hal_log_uart.o                   248
    hal_pinmux.o                      56
    hal_spi_flash_ram.o            3 704                        144
    startup.o                        804                20       12
    ---------------------------------------------------------------
    Total:                         4 900                20    1 436

lib_rtlstd.a: [7]
    ram_libc.o                       312                          4
    ram_libgloss_retarget.o          260                          4
    ---------------------------------------------------------------
    Total:                           572                          8

lib_wlan.a: [8]
    Hal8195APwrSeq.o                                            320
    Hal8195ARateAdaptive.o         1 910                        148
    HalHWImg8195A_BB.o               472                      2 328
    HalHWImg8195A_MAC.o              308                        776
    HalHWImg8195A_RF.o               480               128    6 016
    HalPhyRf.o                     1 268
    HalPhyRf_8195A.o               6 212
    HalPwrSeqCmd.o                   220
    PhyDM_Adaptivity.o               932
    freertos_intfs.o               2 688                         36
    freertos_ioctl.o               9 712                         56
    freertos_isr.o                   120                          4
    freertos_recv.o                  500
    freertos_skbuff.o                848                     13 788
    freertos_xmit.o                  250
    hal_com.o                      2 828
    hal_com_phycfg.o               6 324
    hal_intf.o                       984
    hci_intfs.o                       56
    lxbus_halinit.o                2 700
    lxbus_hci_intf.o                 292                16
    lxbus_intf.o                      88
    lxbus_ops.o                    3 868                      8 417
    netdev.o                          96
    phydm.o                          992
    phydm_CfoTracking.o              124
    phydm_DIG.o                    1 206
    phydm_HWConfig.o               1 020
    phydm_PowerTracking.o            580               624
    phydm_RaInfo.o                   920
    phydm_RegConfig8195A.o           218
    phydm_debug.o                     20
    phydm_interface.o                 88
    rom_rtw_message.o                                4 460      432
    rtk_wlan_if.o                  3 204                         64
    rtl8195a_cmd.o                 1 352
    rtl8195a_dm.o                  1 318
    rtl8195a_hal_init.o            9 468
    rtl8195a_led.o                     4
    rtl8195a_phycfg.o              2 500
    rtl8195a_pmu_cmd.o               380
    rtl8195a_pmu_task.o            6 904                          5
    rtl8195a_recv.o                    6
    rtl8195a_rf6052.o                368
    rtl8195a_rxdesc.o                700
    rtl8195a_xmit.o                2 292
    rtw_ap.o                       5 532
    rtw_cmd.o                      3 920
    rtw_efuse.o                    1 660
    rtw_ieee80211.o                  498
    rtw_intfs.o                      880
    rtw_io.o                          84
    rtw_ioctl_set.o                1 370
    rtw_mlme.o                     5 284                          4
    rtw_mlme_ext.o                18 180               164    1 001
    rtw_promisc.o                  2 208                          8
    rtw_psk.o                      6 588                        360
    rtw_pwrctrl.o                  1 808
    rtw_recv.o                     4 536
    rtw_security.o                   780
    rtw_sta_mgt.o                  1 516
    rtw_wlan_util.o                3 940                 8
    rtw_xmit.o                     5 700                          8
    wifi_simple_config_parser.o    3 124                        224
    wlan_ram_map.o                    24
    ---------------------------------------------------------------
    Total:                       144 452             5 400   33 995

lib_wps.a: [9]
    crypto_internal-modexp.o         154
    dh_group5.o                       54
    dh_groups.o                      254               196       20
    eap_common.o                     284
    eap_wsc.o                        928                         28
    eap_wsc_common.o                  62
    os_freertos.o                    132
    random.o                         344                        160
    wpabuf.o                         234
    wps.o                            420
    wps_attr_build.o                 820
    wps_attr_parse.o               1 142
    wps_attr_process.o               454
    wps_common.o                     968
    wps_dev_attr.o                   760
    wps_enrollee.o                 2 638
    wps_protocol_handler.o         1 432                         16
    wps_validate.o                 2 104
    ---------------------------------------------------------------
    Total:                        13 184               196      224

m7M_tl.a: [10]
    ---------------------------------------------------------------
    Total:

rom.a: [11]
    rom.o                                 276 520             2 156
    rom_wlan_ram_map.o                                            8
    ---------------------------------------------------------------
    Total:                                276 520             2 164

rt7M_tl.a: [12]
    ABImemclr.o                        6
    ABImemclr4.o                       6
    ABImemcpy_unaligned.o            118
    ABImemmove_unaligned.o           120
    ABImemset.o                      102
    ABImemset48.o                     58
    U64Shr.o                          30
    data_init.o                       40
    memchr.o                          88
    memcmp_unaligned.o                98
    strchr.o                          22
    strlen.o                          54
    strncpy_unaligned.o              108
    zero_init3.o                      34
    ---------------------------------------------------------------
    Total:                           884

    Gaps                              78                 2        5
    Linker created                   888                88   62 264
-------------------------------------------------------------------
    Grand Total:                 282 316  276 520   24 698  182 566


*******************************************************************************
*** ENTRY LIST
***

Entry                      Address    Size  Type      Object
-----                      -------    ----  ----      ------
.bf_data$$Base          0x10061000           --   Gb  - Linker created -
.bf_data$$Limit         0x10070000           --   Gb  - Linker created -
.data.log_init$$Base    0x1004d8b4           --   Gb  - Linker created -
.data.log_init$$Limit   0x1004d8c0           --   Gb  - Linker created -
.heap$$Base             0x1ffff334           --   Gb  - Linker created -
.heap$$Limit            0x1ffff338           --   Gb  - Linker created -
.image2.start.table1$$Base
                        0x10006000           --   Gb  - Linker created -
.image2.start.table1$$Limit
                        0x10006004           --   Gb  - Linker created -
.image2.start.table2$$Base
                        0x10006004           --   Gb  - Linker created -
.image2.start.table2$$Limit
                        0x10006038           --   Gb  - Linker created -
.ram.bss$$Base          0x10050880           --   Gb  - Linker created -
.ram.bss$$Limit         0x1005b2a0           --   Gb  - Linker created -
.ram.data$$Base         0x1004d8b4           --   Gb  - Linker created -
.ram.data$$Limit        0x10050880           --   Gb  - Linker created -
.ram.start.table$$Base  0x1fff0000           --   Gb  - Linker created -
.ram.start.table$$Limit
                        0x1fff0014           --   Gb  - Linker created -
.ram_image1.bss$$Base   0x1fff14e4           --   Gb  - Linker created -
.ram_image1.bss$$Limit  0x1fff14e4           --   Gb  - Linker created -
.ram_image1.data$$Base  0x1fff0014           --   Gb  - Linker created -
.ram_image1.data$$Limit
                        0x1fff14e4           --   Gb  - Linker created -
.ram_image1.text$$Base  0x1fff14e4           --   Gb  - Linker created -
.ram_image1.text$$Limit
                        0x1fff24c0           --   Gb  - Linker created -
.ram_image2.text$$Base  0x10006038           --   Gb  - Linker created -
.ram_image2.text$$Limit
                        0x1004d8b4           --   Gb  - Linker created -
.rom.bss$$Base          0x10000300           --   Gb  - Linker created -
.rom.bss$$Limit         0x10000bc8           --   Gb  - Linker created -
.user_data_table$$Base  0x10000200           --   Gb  - Linker created -
.user_data_table$$Limit
                        0x10000300           --   Gb  - Linker created -
.user_vector_table$$Base
                        0x10000100           --   Gb  - Linker created -
.user_vector_table$$Limit
                        0x10000200           --   Gb  - Linker created -
.vector_table$$Base     0x10000000           --   Gb  - Linker created -
.vector_table$$Limit    0x10000100           --   Gb  - Linker created -
AC_BuildMessage         0x10009c3b    0x66  Code  Gb  ac_api.o [2]
AC_BuildOption          0x10009bdd    0x5e  Code  Gb  ac_api.o [2]
AC_ConfigWifi           0x1000a109    0x1e  Code  Gb  ac_hal.o [2]
AC_DealEvent            0x1000a165     0xc  Code  Gb  ac_hal.o [2]
AC_DealLed              0x1000a183    0x32  Code  Gb  ac_hal.o [2]
AC_DealNotifyMessage    0x1000a127    0x3e  Code  Gb  ac_hal.o [2]
AC_ParseOption          0x10009ca5    0x52  Code  Gb  ac_api.o [2]
AC_RecvMessage          0x10009d51    0x3c  Code  Gb  ac_api.o [2]
AC_SendDeviceRegsiterWithMac
                        0x10009cf7    0x52  Code  Gb  ac_api.o [2]
AC_SendMessage          0x10009ca1     0x4  Code  Gb  ac_api.o [2]
AC_StoreStatus          0x1000a171    0x12  Code  Gb  ac_hal.o [2]
ADCDatBuf               0x10053364     0x8  Data  Lc  hal_adc.o [2]
ADCFullStsFlag          0x10053360     0x1  Data  Lc  hal_adc.o [2]
ADCGDMAISRHandle        0x1004574d    0x6e  Code  Gb  hal_adc.o [2]
ADCISRHandle            0x100456f5    0x58  Code  Gb  hal_adc.o [2]
AES_CBC_Decrypt         0x1000a7bd    0x14  Code  Gb  aes_cbc.o [2]
AES_CBC_Encrypt         0x1000a7a7    0x16  Code  Gb  aes_cbc.o [2]
AES_UnWRAP              0x00012701   0x15e  Code  Gb  rom.o [11]
AES_WRAP                0x000125c9   0x136  Code  Gb  rom.o [11]
AES_cbc_core            0x1000a639   0x130  Code  Gb  aes_cbc.o [2]
AES_decrypt             0x1000c8d5   0x34e  Code  Gb  aes_core.o [2]
AES_encrypt             0x1000bdb5   0x302  Code  Gb  aes_core.o [2]
AES_set_decrypt_key     0x1000bc27   0x18e  Code  Gb  aes_core.o [2]
AES_set_encrypt_key     0x1000b9fd   0x1b6  Code  Gb  aes_core.o [2]
AIRGOCAP_OUI            0x1002764c     0x4  Data  Gb  rtw_wlan_util.o [8]
ARFB_table              0x1004e29c    0x40  Data  Gb  Hal8195ARateAdaptive.o [8]
ARTHEROS_OUI1           0x1002762c     0x4  Data  Gb  rtw_wlan_util.o [8]
ARTHEROS_OUI2           0x10027630     0x4  Data  Gb  rtw_wlan_util.o [8]
ATOMIC_DEC_AND_TEST     0x10016969     0xe  Code  Gb  osdep_service.o [2]
ATOMIC_DEC_RETURN       0x10016959    0x10  Code  Gb  osdep_service.o [2]
ATOMIC_INC              0x1001693b     0xe  Code  Gb  osdep_service.o [2]
ATOMIC_INC_RETURN       0x10016949    0x10  Code  Gb  osdep_service.o [2]
ATOMIC_SET              0x1001692d     0xe  Code  Gb  osdep_service.o [2]
Ac_AutoReconnect        0x10011e8d    0x3a  Code  Lc  wifi_conf.o [2]
Ac_DevReset             0x10011e55    0x1e  Code  Gb  wifi_conf.o [2]
ArfrRefresh             0x1003b5b5   0x1ae  Code  Gb  Hal8195ARateAdaptive.o [8]
ArgvArray               0x100006ac    0x28  Data  Gb  rtl_consol.o [2]
ArrayInitialize         0x0000e8b1    0x16  Code  Gb  rom.o [11]
Array_MP_8195A_AGC_TAB  0x1004e484   0x210  Data  Gb  HalHWImg8195A_BB.o [8]
Array_MP_8195A_MAC_REG  0x1004ed9c   0x308  Data  Gb  HalHWImg8195A_MAC.o [8]
Array_MP_8195A_PHY_REG  0x1004e694   0x678  Data  Gb  HalHWImg8195A_BB.o [8]
Array_MP_8195A_PHY_REG_PG
                        0x1004ed0c    0x90  Data  Gb  HalHWImg8195A_BB.o [8]
Array_MP_8195A_RadioA   0x1004f0a4   0x3a0  Data  Gb  HalHWImg8195A_RF.o [8]
Array_MP_8195A_TXPWR_LMT
                        0x1004f5c4  0x1260  Data  Gb  HalHWImg8195A_RF.o [8]
AvaWds                  0x1fff0094  0x1000  Data  Gb  hal_sdr_controller.o [2]
BAUDRATE                0x00030ca8    0x74  Data  Gb  rom.o [11]
BROADCOM_OUI1           0x10027634     0x4  Data  Gb  rtw_wlan_util.o [8]
BROADCOM_OUI2           0x10027638     0x4  Data  Gb  rtw_wlan_util.o [8]
BWMapping_8195A         0x1003f5eb    0x36  Code  Gb  rtl8195a_hal_init.o [8]
BackupCPUClk            0x10038d59    0x1a  Code  Gb  hal_soc_ps_monitor.o [2]
Bi                      0x0003dee0   0x3c0  Data  Lc  rom.o [11]
BusFault_Handler        0x00000125          Code  Gb  rom.o [11]
CCKCETable_8195A        0x10008a10     0xc  Data  Gb  phydm_PowerTracking.o [8]
CCKFCCTable_8195A       0x10008a04     0xc  Data  Gb  phydm_PowerTracking.o [8]
CCKSwingTable_Ch14_8195A
                        0x100088d8   0x12c  Data  Gb  phydm_PowerTracking.o [8]
CCKSwingTable_Ch1_Ch13_8195A
                        0x100087ac   0x12c  Data  Gb  phydm_PowerTracking.o [8]
CISCO_OUI               0x1002763c     0x4  Data  Gb  rtw_wlan_util.o [8]
CLKCal                  0x10038d2b    0x2e  Code  Gb  hal_soc_ps_monitor.o [2]
CPP_INIT$$Base          0x10008a9c           --   Gb  - Linker created -
CPP_INIT$$Limit         0x10008a9c           --   Gb  - Linker created -
CRYPTO_chacha_20        0x0001b41d   0x472  Code  Gb  rom.o [11]
CRYPTO_poly1305_finish  0x0001bd8d   0x230  Code  Gb  rom.o [11]
CRYPTO_poly1305_init    0x0001bc25    0xe4  Code  Gb  rom.o [11]
CRYPTO_poly1305_update  0x0001bd09    0x82  Code  Gb  rom.o [11]
CalcMIC                 0x100394cd    0x54  Code  Lc  rtw_psk.o [8]
CfgSysDebugErr          0x10000308     0x4  Data  Gb  rom.o [11]
CfgSysDebugInfo         0x10000304     0x4  Data  Gb  rom.o [11]
CfgSysDebugWarn         0x10000300     0x4  Data  Gb  rom.o [11]
ChangePSStateByRPWM     0x1002958b    0x24  Code  Gb  rtl8195a_pmu_task.o [8]
ChangeStateByTDMA       0x10028727    0x10  Code  Gb  rtl8195a_pmu_task.o [8]
ChangeTDMAState         0x1002863b    0xec  Code  Gb  rtl8195a_pmu_task.o [8]
ChangeTransmiteRate     0x100288d3    0x6c  Code  Gb  rtl8195a_pmu_task.o [8]
Change_PS_State         0x10029421   0x160  Code  Gb  rtl8195a_pmu_task.o [8]
CheckFwRsvdPageContent  0x100439b1     0x2  Code  Gb  rtl8195a_cmd.o [8]
CheckInReqState         0x1002875b    0x10  Code  Gb  rtl8195a_pmu_task.o [8]
CheckInReqStateTask     0x10029e4d    0x3e  Code  Gb  rtl8195a_pmu_task.o [8]
CheckMIC                0x10039449    0x74  Code  Lc  rtw_psk.o [8]
CheckMaxMacidNum        0x1003acdb    0x3c  Code  Gb  rtl8195a_dm.o [8]
CheckPositive           0x10045041    0xc4  Code  Lc  HalHWImg8195A_BB.o [8]
CheckPositive           0x10045219    0xc4  Code  Lc  HalHWImg8195A_MAC.o [8]
CheckPositive           0x10044e61    0xc4  Code  Lc  HalHWImg8195A_RF.o [8]
CheckRxTgRtl8195a       0x10033407    0x3e  Code  Gb  lxbus_ops.o [8]
CheckTSFIsStable        0x100291f3    0x64  Code  Gb  rtl8195a_pmu_task.o [8]
ChkTxQueueIsEmpty       0x10028c17    0x1a  Code  Gb  rtl8195a_pmu_task.o [8]
ChkandChangePS          0x100289af    0x66  Code  Gb  rtl8195a_pmu_task.o [8]
ClientEAPOLKeyRecvd     0x1003a5e9   0x31e  Code  Gb  rtw_psk.o [8]
ClientSendEAPOL         0x1003a057   0x328  Code  Gb  rtw_psk.o [8]
CmdDumpByte             0x0000e6f5    0x5a  Code  Gb  rom.o [11]
CmdDumpHelfWord         0x0000e505    0xea  Code  Gb  rom.o [11]
CmdDumpWord             0x0000e5f1   0x104  Code  Gb  rom.o [11]
CmdRomHelp              0x0000e419    0x76  Code  Gb  rom.o [11]
CmdSpiFlashTool         0x0000e751    0x58  Code  Gb  rom.o [11]
CmdWriteByte            0x0000e7ad    0x3e  Code  Gb  rom.o [11]
CmdWriteWord            0x0000e491    0x72  Code  Gb  rom.o [11]
ConfigDebugErr          0x10000314     0x4  Data  Gb  rom.o [11]
ConfigDebugInfo         0x10000310     0x4  Data  Gb  rom.o [11]
ConfigDebugWarn         0x1000030c     0x4  Data  Gb  rom.o [11]
ConfigListenBeaconPeriod
                        0x10028e2d    0x20  Code  Gb  rtl8195a_pmu_task.o [8]
ConfigureTxpowerTrack   0x10044661    0x10  Code  Gb  HalPhyRf.o [8]
ConfigureTxpowerTrack_8195A
                        0x10041807    0x32  Code  Gb  HalPhyRf_8195A.o [8]
ConstructBeacon         0x10043773   0x13e  Code  Lc  rtl8195a_cmd.o [8]
ConstructNullFunctionData
                        0x100438bb    0xd2  Code  Lc  rtl8195a_cmd.o [8]
CpkClkTbl               0x00030c68    0x18  Data  Gb  rom.o [11]
DIV                     0x00030d90    0x74  Data  Gb  rom.o [11]
DM_CfoTrack             0x10000738    0x24  Data  Gb  rom.o [11]
DROPING_NECESSARY       0x1004e308    0x14  Data  Gb  Hal8195ARateAdaptive.o [8]
DeInitGTimer1ms         0x10028893    0x40  Code  Gb  rtl8195a_pmu_task.o [8]
DecGTK                  0x100395c5    0xa2  Code  Gb  rtw_psk.o [8]
DecWPA2KeyData          0x1003952d    0x90  Code  Gb  rtw_psk.o [8]
DiagPrintf              0x0000f39d    0x1a  Code  Gb  rom.o [11]
DiagSPrintf             0x0000f3b9    0x18  Code  Gb  rom.o [11]
DiagSnPrintf            0x0000f3d1    0x1a  Code  Gb  rom.o [11]
DisableDMA8195a         0x10033199     0xa  Code  Gb  lxbus_ops.o [8]
DisableInterrupt8195a   0x100331a3     0xe  Code  Gb  lxbus_ops.o [8]
DoIQK_8195A             0x1004130b    0x1e  Code  Gb  HalPhyRf_8195A.o [8]
DoReserved              0x1002f673     0x4  Code  Gb  rtw_mlme_ext.o [8]
DramInit                0x1fff1d43   0x282  Code  Gb  hal_sdr_controller.o [2]
DumpForOneBytes         0x0000e259   0x1be  Code  Gb  rom.o [11]
DurationScaleAndPeriodOP
                        0x10038cfd    0x2e  Code  Gb  hal_soc_ps_monitor.o [2]
EAPOLKeyRecvd           0x1003a477   0x15c  Code  Gb  rtw_psk.o [8]
EFUSE_GetEfuseDefinition
                        0x1003dd81    0x12  Code  Gb  rtw_efuse.o [8]
EFUSE_ShadowMapUpdate   0x1003e2f1    0x50  Code  Gb  rtw_efuse.o [8]
ERP_IE_handler          0x10026f2f    0x16  Code  Gb  rtw_wlan_util.o [8]
EVENT_BuildBcMsg        0x1000a275    0x6e  Code  Gb  zc_cloud_event.o [2]
EVENT_BuildEmptyMsg     0x1000a1e9    0x1a  Code  Gb  zc_cloud_event.o [2]
EVENT_BuildHeartMsg     0x1000a203    0x1a  Code  Gb  zc_cloud_event.o [2]
EVENT_BuildMsg          0x1000a233    0x42  Code  Gb  zc_cloud_event.o [2]
EVENT_BuildOption       0x1000a33b    0x5e  Code  Gb  zc_cloud_event.o [2]
EVENT_ParseOption       0x1000a2e9    0x52  Code  Gb  zc_cloud_event.o [2]
Efuse_CalculateWordCnts
                        0x1003dce5    0x1e  Code  Gb  rtw_efuse.o [8]
Efuse_GetCurrentSize    0x1003dcdd     0x8  Code  Gb  rtw_efuse.o [8]
Efuse_PowerSwitch       0x1003dcd5     0x8  Code  Gb  rtw_efuse.o [8]
Efuse_ReadAllMap        0x1003dffb    0x3a  Code  Gb  rtw_efuse.o [8]
Efuse_WordEnableDataWrite
                        0x1003df3f    0x12  Code  Gb  rtw_efuse.o [8]
En32KCalibration        0x1004a0ed    0x56  Code  Gb  hal_32k.o [2]
EnableDMA8195a          0x10033147    0x24  Code  Gb  lxbus_ops.o [8]
EnableInterrupt8195a    0x1003316b    0x2e  Code  Gb  lxbus_ops.o [8]
EncGTK                  0x100393f9    0x46  Code  Lc  rtw_psk.o [8]
EnterPS                 0x1002876b    0x24  Code  Gb  rtl8195a_pmu_task.o [8]
F.constprop.0           0x00013e05    0x96  Code  Lc  rom.o [11]
FSb                     0x000317b0   0x400  Data  Lc  rom.o [11]
FT0                     0x00032bb0   0x400  Data  Lc  rom.o [11]
FT1                     0x000333b0   0x400  Data  Lc  rom.o [11]
FT2                     0x000337b0   0x400  Data  Lc  rom.o [11]
FT3                     0x00032fb0   0x400  Data  Lc  rom.o [11]
FalseAlmCnt             0x100006e0    0x3c  Data  Gb  rom.o [11]
FillH2CCmd8195A         0x10043751    0x22  Code  Gb  rtl8195a_cmd.o [8]
GPIOCtrl                0x00000cc5    0x38  Code  Lc  rom.o [11]
GPIOCtrl.part.0         0x00000c99    0x2a  Code  Lc  rom.o [11]
GPIOState               0x10000334    0x16  Data  Gb  rom.o [11]
GPIO_FuncOff_8195a      0x0000d481    0x68  Code  Wk  rom.o [11]
GPIO_FuncOn_8195a       0x0000d421    0x5e  Code  Wk  rom.o [11]
GPIO_GetChipPinName_8195a
                        0x0000d331    0x6c  Code  Wk  rom.o [11]
GPIO_GetIPPinName_8195a
                        0x0000d2e5    0x4c  Code  Wk  rom.o [11]
GPIO_Int_Mask_8195a     0x0000d4e9    0x28  Code  Wk  rom.o [11]
GPIO_Int_SetType_8195a  0x0000d511    0xea  Code  Wk  rom.o [11]
GPIO_PullCtrl_8195a     0x0000d39d    0x84  Code  Wk  rom.o [11]
GTimer6Handle           0x100287b1    0x48  Code  Gb  rtl8195a_pmu_task.o [8]
GTimer7Handle           0x100287f9    0x58  Code  Gb  rtl8195a_pmu_task.o [8]
GenNonce                0x10039691    0x70  Code  Lc  rtw_psk.o [8]
GetArgc                 0x0000e8c9    0x2e  Code  Gb  rom.o [11]
GetArgv                 0x0000e8f9    0x64  Code  Gb  rom.o [11]
GetDeltaSwingTable_8195A
                        0x100417d5    0x32  Code  Gb  HalPhyRf_8195A.o [8]
GetDmaTxbdIdx           0x1003d12b    0x22  Code  Gb  rtl8195a_xmit.o [8]
GetHalDefVar8195A       0x1004065d     0x4  Code  Gb  rtl8195a_hal_init.o [8]
GetHalDefVar8195AB      0x100383af    0x50  Code  Gb  lxbus_halinit.o [8]
GetHalODMVar8195A       0x10040661    0x1e  Code  Gb  rtl8195a_hal_init.o [8]
GetHwReg                0x1002a97b     0x2  Code  Gb  hal_com.o [8]
GetHwReg8195A           0x10040587    0xd2  Code  Gb  rtl8195a_hal_init.o [8]
GetHwReg8195AB          0x100383ab     0x4  Code  Gb  lxbus_halinit.o [8]
GetMediaStatusCommon    0x1003ad17    0x22  Code  Gb  rtl8195a_dm.o [8]
GetRomCmdNum            0x0000e7a9     0x4  Code  Gb  rom.o [11]
GetTxBufDesc            0x1003d199    0x46  Code  Lc  rtl8195a_xmit.o [8]
GetTxrptStatistic       0x1003ad39    0x98  Code  Gb  rtl8195a_dm.o [8]
GetU1ByteIntegerFromStringInDecimal
                        0x1002a997    0x2e  Code  Gb  hal_com.o [8]
GpioFunctionChk         0x10026339    0x32  Code  Gb  hal_pinmux.o [6]
H2CCmdCommon            0x1004547d    0x4c  Code  Gb  rtl8195a_pmu_cmd.o [8]
H2CHDL_BcnIgnoreEDCCA   0x10029f05    0x10  Code  Gb  rtl8195a_pmu_task.o [8]
H2CHDL_JoinInfo         0x100453d9    0x34  Code  Gb  rtl8195a_pmu_cmd.o [8]
H2CHDL_SetPwrMode       0x10029d2b   0x118  Code  Gb  rtl8195a_pmu_task.o [8]
H2CHDL_SetRsvdPage      0x1004540d    0x62  Code  Gb  rtl8195a_pmu_cmd.o [8]
H2CHDL_Set_MACID_Config
                        0x1003b76d    0xa6  Code  Gb  Hal8195ARateAdaptive.o [8]
HALEFUSEOneByteReadROM  0x000065f9    0xa0  Code  Gb  rom.o [11]
HALEFUSEOneByteWriteROM
                        0x00006699    0xac  Code  Gb  rom.o [11]
HAL_GPIO_DeInit_8195a   0x0000dac1   0x110  Code  Wk  rom.o [11]
HAL_GPIO_GetIPPinName_8195a
                        0x0000e1c1     0x8  Code  Wk  rom.o [11]
HAL_GPIO_GetPinName     0x10009b21     0x4  Code  Gb  hal_gpio.o [2]
HAL_GPIO_Init           0x10009b25    0x2c  Code  Gb  hal_gpio.o [2]
HAL_GPIO_Init_8195a     0x0000d805   0x2ba  Code  Wk  rom.o [11]
HAL_GPIO_IntCtrl_8195a  0x0000d6cd   0x138  Code  Wk  rom.o [11]
HAL_GPIO_IntDebounce_8195a
                        0x0000e101    0xc0  Code  Wk  rom.o [11]
HAL_GPIO_IrqHandler_8195a
                        0x0000d5fd    0x46  Code  Wk  rom.o [11]
HAL_GPIO_MaskIrq_8195a  0x0000dfc1    0xa0  Code  Wk  rom.o [11]
HAL_GPIO_MbedIrqHandler_8195a
                        0x0000d645    0x5c  Code  Wk  rom.o [11]
HAL_GPIO_PullCtrl_8195a
                        0x0000e1c9    0x8e  Code  Wk  rom.o [11]
HAL_GPIO_ReadPin_8195a  0x0000dbd1    0xc0  Code  Wk  rom.o [11]
HAL_GPIO_RegIrq_8195a   0x0000ddad    0x46  Code  Wk  rom.o [11]
HAL_GPIO_UnMaskIrq_8195a
                        0x0000e061    0xa0  Code  Wk  rom.o [11]
HAL_GPIO_UnRegIrq_8195a
                        0x0000ddf5    0x1e  Code  Wk  rom.o [11]
HAL_GPIO_UserIrqHandler_8195a
                        0x0000d6a1    0x2c  Code  Wk  rom.o [11]
HAL_GPIO_UserRegIrq_8195a
                        0x0000de15    0xe4  Code  Wk  rom.o [11]
HAL_GPIO_UserUnRegIrq_8195a
                        0x0000def9    0xc8  Code  Wk  rom.o [11]
HAL_GPIO_WritePin_8195a
                        0x0000dc91   0x11a  Code  Wk  rom.o [11]
HAL_IsLegalChannel      0x1002a277    0x26  Code  Gb  hal_com.o [8]
HF_BcInit               0x1000eae3    0x84  Code  Gb  zc_hf_adpter.o [2]
HF_CheckImg2Addr        0x1000e5e1    0x70  Code  Gb  zc_hf_adpter.o [2]
HF_CloudRecvfunc        0x1000e73f   0x1ce  Code  Lc  zc_hf_adpter.o [2]
HF_Cloudfunc            0x1000eb67    0x5a  Code  Lc  zc_hf_adpter.o [2]
HF_ConnectToCloud       0x1000e99d    0xaa  Code  Gb  zc_hf_adpter.o [2]
HF_FirmwareUpdate       0x1000e6bd    0x4a  Code  Gb  zc_hf_adpter.o [2]
HF_FirmwareUpdateFinish
                        0x1000e651    0x6c  Code  Gb  zc_hf_adpter.o [2]
HF_GetMac               0x1000e93f    0x5a  Code  Gb  zc_hf_adpter.o [2]
HF_Init                 0x1000ebc1    0xf6  Code  Gb  zc_hf_adpter.o [2]
HF_ListenClient         0x1000ea4f    0x6a  Code  Gb  zc_hf_adpter.o [2]
HF_Printf               0x1000eab9    0x2a  Code  Gb  zc_hf_adpter.o [2]
HF_ReadDataFromFlash    0x1000e2ed    0x58  Code  Gb  zc_hf_adpter.o [2]
HF_ReadNewImg2Addr      0x1000e427   0x1b4  Code  Gb  zc_hf_adpter.o [2]
HF_Reboot               0x1000e999     0x4  Code  Gb  zc_hf_adpter.o [2]
HF_Rest                 0x1000e711    0x16  Code  Gb  zc_hf_adpter.o [2]
HF_SendDataToMoudle     0x1000e707     0xa  Code  Gb  zc_hf_adpter.o [2]
HF_SendTcpData          0x1000e727     0x6  Code  Gb  zc_hf_adpter.o [2]
HF_SendUdpData          0x1000e72d    0x12  Code  Gb  zc_hf_adpter.o [2]
HF_SetTimer             0x1000e38f    0x58  Code  Gb  zc_hf_adpter.o [2]
HF_Sleep                0x1000eccd    0x5e  Code  Gb  zc_hf_adpter.o [2]
HF_StopTimer            0x1000e381     0xe  Code  Gb  zc_hf_adpter.o [2]
HF_WakeUp               0x1000ecb7    0x16  Code  Gb  zc_hf_adpter.o [2]
HF_WriteDataToFlash     0x1000e345    0x3c  Code  Gb  zc_hf_adpter.o [2]
HTOnAssocRsp            0x10026edf    0x50  Code  Gb  rtw_wlan_util.o [8]
HT_caps_handler         0x10026e03    0xb8  Code  Gb  rtw_wlan_util.o [8]
HT_info_handler         0x10026ebb    0x24  Code  Gb  rtw_wlan_util.o [8]
HalADCDeInit8195a       0x1004a3e5     0xe  Code  Gb  rtl8195a_adc.o [2]
HalADCEnableRtl8195a    0x1004a3f3    0x40  Code  Gb  rtl8195a_adc.o [2]
HalADCInit8195a         0x1004a221   0x1c4  Code  Gb  rtl8195a_adc.o [2]
HalADCIntrCtrl8195a     0x1004a433     0xa  Code  Gb  rtl8195a_adc.o [2]
HalADCOpInit            0x100456cd    0x26  Code  Gb  hal_adc.o [2]
HalADCReadRegRtl8195a   0x1004a443     0x6  Code  Gb  rtl8195a_adc.o [2]
HalADCReceiveRtl8195a   0x1004a43d     0x6  Code  Gb  rtl8195a_adc.o [2]
HalBusFaultHandler      0x00000c39    0x2e  Code  Gb  rom.o [11]
HalCheckInReqStateThreadRtl8195a
                        0x1003ef39    0x26  Code  Gb  rtl8195a_hal_init.o [8]
HalCommonInit           0x1004d549    0x10  Code  Gb  hal_common.o [6]
HalCpuClkConfig         0x00000341    0x14  Code  Wk  rom.o [11]
HalCryptoIntrHandle     0x00003935    0x50  Code  Gb  rom.o [11]
HalDEBUGPinCtrlRtl8195A
                        0x00002a31   0x108  Code  Gb  rom.o [11]
HalDeinitLogUart        0x1001bb1d    0x20  Code  Gb  hal_log_uart.o [6]
HalDelayUs              0x00000899    0x48  Code  Wk  rom.o [11]
HalEEPROMPinCtrlRtl8195A
                        0x000029d9    0x58  Code  Gb  rom.o [11]
HalEFUSEPowerSwitch8195AROM
                        0x00006561    0x98  Code  Gb  rom.o [11]
HalEGTIMPinCtrlRtl8195A
                        0x000025d9    0x9e  Code  Gb  rom.o [11]
HalETE0PinCtrlRtl8195A  0x000021b9   0x106  Code  Gb  rom.o [11]
HalETE1PinCtrlRtl8195A  0x000022c1   0x106  Code  Gb  rom.o [11]
HalETE2PinCtrlRtl8195A  0x000023c9   0x106  Code  Gb  rom.o [11]
HalETE3PinCtrlRtl8195A  0x000024d1   0x106  Code  Gb  rom.o [11]
HalGdamChInitRtl8195a   0x00005e91    0x2c  Code  Wk  rom.o [11]
HalGdma0Ch0IntrHandle   0x000039d5    0x50  Code  Gb  rom.o [11]
HalGdma0Ch1IntrHandle   0x00003a25    0x50  Code  Gb  rom.o [11]
HalGdma0Ch2IntrHandle   0x00003a75    0x50  Code  Gb  rom.o [11]
HalGdma0Ch3IntrHandle   0x00003ac5    0x50  Code  Gb  rom.o [11]
HalGdma0Ch4IntrHandle   0x00003b15    0x50  Code  Gb  rom.o [11]
HalGdma0Ch5IntrHandle   0x00003b65    0x50  Code  Gb  rom.o [11]
HalGdma1Ch0IntrHandle   0x00003bb5    0x50  Code  Gb  rom.o [11]
HalGdma1Ch1IntrHandle   0x00003c05    0x50  Code  Gb  rom.o [11]
HalGdma1Ch2IntrHandle   0x00003c55    0x50  Code  Gb  rom.o [11]
HalGdma1Ch3IntrHandle   0x00003ca5    0x50  Code  Gb  rom.o [11]
HalGdma1Ch4IntrHandle   0x00003cf5    0x50  Code  Gb  rom.o [11]
HalGdma1Ch5IntrHandle   0x00003d45    0x50  Code  Gb  rom.o [11]
HalGdmaChBlockSetingRtl8195a
                        0x1004a541   0x270  Code  Gb  rtl8195a_gdma.o [2]
HalGdmaChCleanAutoDstRtl8195a
                        0x00006501    0x60  Code  Wk  rom.o [11]
HalGdmaChCleanAutoSrcRtl8195a
                        0x000064a1    0x60  Code  Wk  rom.o [11]
HalGdmaChDisRtl8195a    0x00005e6d    0x24  Code  Wk  rom.o [11]
HalGdmaChEnRtl8195a     0x00005e51    0x1a  Code  Wk  rom.o [11]
HalGdmaChIsrCleanRtl8195a
                        0x00006419    0x88  Code  Wk  rom.o [11]
HalGdmaChIsrEnAndDisRtl8195a
                        0x00005e0d    0x44  Code  Wk  rom.o [11]
HalGdmaChSetingRtl8195a
                        0x00005ebd   0x220  Code  Wk  rom.o [11]
HalGdmaOnOffRtl8195a    0x00005df1    0x1a  Code  Wk  rom.o [11]
HalGdmaOpInit           0x1004a17d    0x3e  Code  Gb  hal_gdma.o [2]
HalGetCpuClk            0x00000355    0x46  Code  Wk  rom.o [11]
HalGetRomInfo           0x000003b5     0xe  Code  Wk  rom.o [11]
HalGetTimerIdRtl8195a   0x0000ef09    0x34  Code  Gb  rom.o [11]
HalGmacIntrHandle       0x00003985    0x50  Code  Gb  rom.o [11]
HalGpioIntrHandle       0x00003665    0x4e  Code  Gb  rom.o [11]
HalHardFaultHandler     0x00000911   0x2f6  Code  Gb  rom.o [11]
HalHardFaultHandler_Patch_asm
                        0x1004ac65    0x14  Code  Gb  startup.o [6]
HalHardFaultHandler_Patch_c
                        0x1004abcd    0x50  Code  Gb  startup.o [6]
HalI2C0PinCtrlRtl8195A  0x00001275   0x10a  Code  Gb  rom.o [11]
HalI2C1PinCtrlRtl8195A  0x00001381    0xd6  Code  Gb  rom.o [11]
HalI2C2PinCtrlRtl8195A  0x00001459    0xd0  Code  Gb  rom.o [11]
HalI2C3IntrHandle       0x00003575    0x4e  Code  Gb  rom.o [11]
HalI2C3PinCtrlRtl8195A  0x00001529   0x10e  Code  Gb  rom.o [11]
HalI2CClrAllIntrRtl8195a
                        0x0000a761    0x14  Code  Wk  rom.o [11]
HalI2CClrIntrRtl8195a   0x0000a749    0x16  Code  Wk  rom.o [11]
HalI2CDMACtrl8195a      0x0000aa31    0x2e  Code  Wk  rom.o [11]
HalI2CDeInit8195a       0x0000a0dd   0x112  Code  Wk  rom.o [11]
HalI2CEnableRtl8195a    0x0000a271   0x116  Code  Wk  rom.o [11]
HalI2CInit8195a         0x0000a775   0x2bc  Code  Wk  rom.o [11]
HalI2CIntrCtrl8195a     0x0000a389    0x18  Code  Wk  rom.o [11]
HalI2CMassSendRtl8195a  0x0000a6e9    0x60  Code  Wk  rom.o [11]
HalI2COpInit            0x0000aa69   0x1fc  Code  Wk  rom.o [11]
HalI2CRead32            0x0000a09d    0x40  Code  Wk  rom.o [11]
HalI2CReadRegRtl8195a   0x0000a3a1    0x10  Code  Wk  rom.o [11]
HalI2CReceiveRtl8195a   0x0000a25d    0x14  Code  Wk  rom.o [11]
HalI2CSendRtl8195a      0x0000a1f1    0x6a  Code  Wk  rom.o [11]
HalI2CSetCLKRtl8195a    0x0000a3c5   0x324  Code  Wk  rom.o [11]
HalI2CWrite32           0x0000a061    0x3c  Code  Wk  rom.o [11]
HalI2CWriteRegRtl8195a  0x0000a3b1    0x12  Code  Wk  rom.o [11]
HalI2S0PinCtrlRtl8195A  0x00001639   0x132  Code  Gb  rom.o [11]
HalI2S1PinCtrlRtl8195A  0x0000176d    0xd6  Code  Gb  rom.o [11]
HalI2SClrAllIntrRtl8195a
                        0x0000d0fd    0x20  Code  Wk  rom.o [11]
HalI2SClrIntrRtl8195a   0x0000d0dd    0x20  Code  Wk  rom.o [11]
HalI2SDeInitRtl8195a    0x0000cfa9    0x20  Code  Wk  rom.o [11]
HalI2SEnableRtl8195a    0x0000d05d    0x52  Code  Wk  rom.o [11]
HalI2SInitRtl8195a      0x0000d11d   0x1c6  Code  Wk  rom.o [11]
HalI2SIntrCtrlRtl8195a  0x0000d0b1    0x20  Code  Wk  rom.o [11]
HalI2SRead32            0x0000cf85    0x22  Code  Wk  rom.o [11]
HalI2SReadRegRtl8195a   0x0000d0d1     0xa  Code  Wk  rom.o [11]
HalI2SRxRtl8195a        0x0000d011    0x4c  Code  Wk  rom.o [11]
HalI2STxRtl8195a        0x0000cfc9    0x48  Code  Wk  rom.o [11]
HalI2SWrite32           0x0000cf65    0x20  Code  Wk  rom.o [11]
HalI2s0OrPcm0IntrHandle
                        0x000037f5    0x50  Code  Gb  rom.o [11]
HalI2s1OrPcm1IntrHandle
                        0x00003845    0x50  Code  Gb  rom.o [11]
HalInitLogUart          0x1001baaf    0x6e  Code  Gb  hal_log_uart.o [6]
HalJTAGPinCtrlRtl8195A  0x0000280d    0x52  Code  Gb  rom.o [11]
HalLOGUartIRPinCtrlRtl8195A
                        0x0000291d    0x62  Code  Gb  rom.o [11]
HalLOGUartPinCtrlRtl8195A
                        0x000028b9    0x62  Code  Gb  rom.o [11]
HalLittleWifiMCUThreadRtl8195a
                        0x1003eeeb    0x34  Code  Gb  rtl8195a_hal_init.o [8]
HalLogUartInit          0x00000201    0xd6  Code  Gb  rom.o [11]
HalLogUartInitSetting   0x1001ba55    0x5a  Code  Gb  hal_log_uart.o [6]
HalMIIPinCtrlRtl8195A   0x00001ab9    0x98  Code  Gb  rom.o [11]
HalMemManageHandler     0x00000c09    0x2e  Code  Gb  rom.o [11]
HalNFCPinCtrlRtl8195A   0x00001d59    0x50  Code  Gb  rom.o [11]
HalNMIHandler           0x000008e1    0x2e  Code  Gb  rom.o [11]
HalNMIHandler_Patch     0x1004ab9d    0x30  Code  Gb  startup.o [6]
HalPCM0PinCtrlRtl8195A  0x00001845   0x104  Code  Gb  rom.o [11]
HalPCM1PinCtrlRtl8195A  0x00001949    0xd4  Code  Gb  rom.o [11]
HalPWM0PinCtrlRtl8195A  0x00001da9   0x104  Code  Gb  rom.o [11]
HalPWM1PinCtrlRtl8195A  0x00001ead   0x106  Code  Gb  rom.o [11]
HalPWM2PinCtrlRtl8195A  0x00001fb5    0xfc  Code  Gb  rom.o [11]
HalPWM3PinCtrlRtl8195A  0x000020b1   0x106  Code  Gb  rom.o [11]
HalPeripheralIntrHandle
                        0x000033b5    0x84  Code  Gb  rom.o [11]
HalPinCtrlRtl8195A      0x00002b39   0x324  Code  Gb  rom.o [11]
HalPwrSeqCmdParsing     0x10042a75    0xdc  Code  Gb  HalPwrSeqCmd.o [8]
HalResetVsr             0x000003c5   0x4d4  Code  Wk  rom.o [11]
HalRomInfo              0x0000039d    0x16  Code  Wk  rom.o [11]
HalRuartAdapterLoadDefRtl8195a
                        0x00004a4d    0x90  Code  Wk  rom.o [11]
HalRuartDeInitRtl8195a  0x00004855   0x12e  Code  Wk  rom.o [11]
HalRuartDmaInitRtl8195a
                        0x00004681   0x1c4  Code  Wk  rom.o [11]
HalRuartDmaRecvRtl8195a
                        0x000051ad   0x11e  Code  Wk  rom.o [11]
HalRuartDmaSendRtl8195a
                        0x00004e35   0x152  Code  Wk  rom.o [11]
HalRuartGetCRtl8195a    0x0000429d    0x1e  Code  Wk  rom.o [11]
HalRuartGetDebugValueRtl8195a
                        0x000042e1   0x100  Code  Wk  rom.o [11]
HalRuartGetIMRRtl8195a  0x000043e1    0x4a  Code  Wk  rom.o [11]
HalRuartInitRtl8195a    0x00005829   0x5c6  Code  Wk  rom.o [11]
HalRuartIntDisableRtl8195a
                        0x00004845    0x10  Code  Wk  rom.o [11]
HalRuartIntEnableRtl8195a
                        0x00004985    0x10  Code  Wk  rom.o [11]
HalRuartIntRecvRtl8195a
                        0x0000504d   0x15e  Code  Wk  rom.o [11]
HalRuartIntSendRtl8195a
                        0x00004d09   0x12c  Code  Wk  rom.o [11]
HalRuartPutCRtl8195a    0x00004281    0x1c  Code  Wk  rom.o [11]
HalRuartRTSCtrlRtl8195a
                        0x000042bd    0x22  Code  Wk  rom.o [11]
HalRuartRecvRtl8195a    0x00005599   0x1b8  Code  Wk  rom.o [11]
HalRuartRegIrqRtl8195a  0x000049d1    0x7a  Code  Wk  rom.o [11]
HalRuartResetRxFifoRtl8195a
                        0x00005775    0xb2  Code  Wk  rom.o [11]
HalRuartRxGdmaLoadDefRtl8195a
                        0x00004bc9    0xfe  Code  Wk  rom.o [11]
HalRuartSendRtl8195a    0x000053b1   0x1e6  Code  Wk  rom.o [11]
HalRuartSetIMRRtl8195a  0x0000442d    0x38  Code  Wk  rom.o [11]
HalRuartStopRecvRtl8195a
                        0x000052cd    0xb8  Code  Wk  rom.o [11]
HalRuartStopSendRtl8195a
                        0x00004f89    0xc4  Code  Wk  rom.o [11]
HalRuartTxGdmaLoadDefRtl8195a
                        0x00004add    0xec  Code  Wk  rom.o [11]
HalSDIODPinCtrlRtl8195A
                        0x00001a1d    0x50  Code  Gb  rom.o [11]
HalSDIOHPinCtrlRtl8195A
                        0x00001a6d    0x4c  Code  Gb  rom.o [11]
HalSDRPinCtrlRtl8195A   0x00002725    0xe6  Code  Gb  rom.o [11]
HalSICPinCtrlRtl8195A   0x00002981    0x58  Code  Gb  rom.o [11]
HalSPI0MCSPinCtrlRtl8195A
                        0x000011b5    0xc0  Code  Gb  rom.o [11]
HalSPI0PinCtrlRtl8195A  0x00000f75    0xa0  Code  Gb  rom.o [11]
HalSPI1PinCtrlRtl8195A  0x00001015    0xce  Code  Gb  rom.o [11]
HalSPI2PinCtrlRtl8195A  0x000010e5    0xd0  Code  Gb  rom.o [11]
HalSPIFlashPinCtrlRtl8195A
                        0x00002679    0xaa  Code  Gb  rom.o [11]
HalSdioDeviceIntrHandle
                        0x00003d95    0x50  Code  Gb  rom.o [11]
HalSdioHostIntrHandle   0x000037a5    0x50  Code  Gb  rom.o [11]
HalSerialGetIsrEnRegRtl8195a
                        0x00000329     0xc  Code  Gb  rom.o [11]
HalSerialGetcRtl8195a   0x00000309    0x1e  Code  Gb  rom.o [11]
HalSerialPutcRtl8195a   0x000002d9    0x30  Code  Gb  rom.o [11]
HalSerialSetIrqEnRegRtl8195a
                        0x00000335     0xc  Code  Gb  rom.o [11]
HalSetBrateCfg          0x1002a5c7    0xa8  Code  Gb  hal_com.o [8]
HalSpi0IntrHandle       0x00003615    0x4e  Code  Gb  rom.o [11]
HalSpiFlashIntrHandle   0x00003705    0x50  Code  Gb  rom.o [11]
HalSsiBusyRtl8195a      0x00008c81    0x76  Code  Wk  rom.o [11]
HalSsiDisableRtl8195a   0x00007ef9    0xb4  Code  Wk  rom.o [11]
HalSsiEnableRtl8195a    0x00007e45    0xb4  Code  Wk  rom.o [11]
HalSsiGetInterruptMaskRtl8195a
                        0x000085c9    0x72  Code  Wk  rom.o [11]
HalSsiGetInterruptStatusRtl8195a
                        0x000090d9    0x72  Code  Wk  rom.o [11]
HalSsiGetRawInterruptStatusRtl8195a
                        0x000093e9    0x72  Code  Wk  rom.o [11]
HalSsiGetRxFifoLevelRtl8195a
                        0x00008a2d    0x76  Code  Wk  rom.o [11]
HalSsiGetSlaveEnableRegisterRtl8195a
                        0x0000945d    0x72  Code  Wk  rom.o [11]
HalSsiGetStatusRtl8195a
                        0x00008b1d    0x72  Code  Wk  rom.o [11]
HalSsiGetTxFifoLevelRtl8195a
                        0x00008aa5    0x76  Code  Wk  rom.o [11]
HalSsiInitRtl8195a      0x000094d1   0x6d2  Code  Wk  rom.o [11]
HalSsiInterruptDisableRtl8195a
                        0x00009299   0x150  Code  Wk  rom.o [11]
HalSsiInterruptEnableRtl8195a
                        0x0000914d   0x14a  Code  Wk  rom.o [11]
HalSsiLoadSettingRtl8195a
                        0x00007fad   0x572  Code  Wk  rom.o [11]
HalSsiPinmuxEnableRtl8195a
                        0x00007cd5   0x170  Code  Wk  rom.o [11]
HalSsiReadInterruptRtl8195a
                        0x00008cf9   0x204  Code  Wk  rom.o [11]
HalSsiReadRtl8195a      0x000089b9    0x72  Code  Wk  rom.o [11]
HalSsiReadableRtl8195a  0x00008c09    0x76  Code  Wk  rom.o [11]
HalSsiSetDeviceRoleRtl8195a
                        0x00008861    0x66  Code  Wk  rom.o [11]
HalSsiSetInterruptMaskRtl8195a
                        0x00008521    0xa8  Code  Wk  rom.o [11]
HalSsiSetRxFifoThresholdLevelRtl8195a
                        0x000088c9    0x76  Code  Wk  rom.o [11]
HalSsiSetSclkPhaseRtl8195a
                        0x00008715    0xd2  Code  Wk  rom.o [11]
HalSsiSetSclkPolarityRtl8195a
                        0x0000863d    0xd6  Code  Wk  rom.o [11]
HalSsiSetSlaveEnableRegisterRtl8195a
                        0x00009009    0xce  Code  Wk  rom.o [11]
HalSsiSetTxFifoThresholdLevelRtl8195a
                        0x00008941    0x76  Code  Wk  rom.o [11]
HalSsiWriteInterruptRtl8195a
                        0x00008efd   0x10a  Code  Wk  rom.o [11]
HalSsiWriteRtl8195a     0x000087e9    0x78  Code  Wk  rom.o [11]
HalSsiWriteableRtl8195a
                        0x00008b91    0x76  Code  Wk  rom.o [11]
HalSysOnIntrHandle      0x00003439    0x4c  Code  Gb  rom.o [11]
HalTDMAChangeStateThreadRtl8195a
                        0x1003ef87    0x28  Code  Gb  rtl8195a_hal_init.o [8]
HalTRACEPinCtrlRtl8195A
                        0x00002861    0x58  Code  Gb  rom.o [11]
HalTimer0IntrHandle     0x000034d5    0x4e  Code  Gb  rom.o [11]
HalTimer1IntrHandle     0x00003525    0x4e  Code  Gb  rom.o [11]
HalTimer2To7IntrHandle  0x000035c5    0x4e  Code  Gb  rom.o [11]
HalTimerDeInitRtl8195a_Patch
                        0x1001cf8b    0x2a  Code  Gb  rtl8195a_timer.o [2]
HalTimerDisRtl8195a     0x0000f069    0x20  Code  Gb  rom.o [11]
HalTimerDisRtl8195a_Patch
                        0x1001d01b    0x12  Code  Gb  rtl8195a_timer.o [2]
HalTimerDumpRegRtl8195a
                        0x0000f0d1    0x56  Code  Gb  rom.o [11]
HalTimerEnRtl8195a      0x0000f089    0x20  Code  Gb  rom.o [11]
HalTimerEnRtl8195a_Patch
                        0x1001d009    0x12  Code  Gb  rtl8195a_timer.o [2]
HalTimerEnable          0x10028605    0x12  Code  Lc  rtl8195a_pmu_task.o [8]
HalTimerInitRtl8195a    0x0000ef3d   0x12a  Code  Gb  rom.o [11]
HalTimerInitRtl8195a_Patch
                        0x1001ce6f    0xb4  Code  Gb  rtl8195a_timer.o [2]
HalTimerIrq2To7Handle   0x0000ee59    0xb0  Code  Gb  rom.o [11]
HalTimerIrq2To7Handle_Patch
                        0x1001cda5    0x60  Code  Gb  rtl8195a_timer.o [2]
HalTimerIrqClearRtl8195a
                        0x0000f0bd    0x12  Code  Gb  rom.o [11]
HalTimerIrqEnRtl8195a   0x1001cff7    0x12  Code  Gb  rtl8195a_timer.o [2]
HalTimerIrqRegisterRtl8195a_Patch
                        0x1001ce05    0x6a  Code  Gb  rtl8195a_timer.o [2]
HalTimerIrqUnRegisterRtl8195a_Patch
                        0x1001cf23    0x68  Code  Gb  rtl8195a_timer.o [2]
HalTimerOp              0x10000318    0x1c  Data  Gb  rom.o [11]
HalTimerOpInit          0x0000ee0d    0x4c  Code  Wk  rom.o [11]
HalTimerOpInit_Patch    0x1004a1e5    0x3c  Code  Gb  hal_timer.o [2]
HalTimerReLoadRtl8195a_Patch
                        0x1001cfb5    0x28  Code  Gb  rtl8195a_timer.o [2]
HalTimerReadCountRtl8195a
                        0x0000f0a9    0x12  Code  Gb  rom.o [11]
HalTimerReadCountRtl8195a_Patch
                        0x1001cfdd    0x1a  Code  Gb  rtl8195a_timer.o [2]
HalUart0IntrHandle      0x000036b5    0x50  Code  Gb  rom.o [11]
HalUart0PinCtrlRtl8195A
                        0x00000cfd    0xca  Code  Gb  rom.o [11]
HalUart1PinCtrlRtl8195A
                        0x00000dc9    0xd2  Code  Gb  rom.o [11]
HalUart2PinCtrlRtl8195A
                        0x00000e9d    0xd8  Code  Gb  rom.o [11]
HalUsageFaultHandler    0x00000c69    0x2e  Code  Gb  rom.o [11]
HalUsbOtgIntrHandle     0x00003755    0x50  Code  Gb  rom.o [11]
HalWLANT0PinCtrlRtl8195A
                        0x00001c0d    0x52  Code  Gb  rom.o [11]
HalWLANT1PinCtrlRtl8195A
                        0x00001c61    0x52  Code  Gb  rom.o [11]
HalWLBTCMDPinCtrlRtl8195A
                        0x00001d05    0x52  Code  Gb  rom.o [11]
HalWLBTCOEXPinCtrlRtl8195A
                        0x00001cb5    0x50  Code  Gb  rom.o [11]
HalWLLEDPinCtrlRtl8195A
                        0x00001b51    0xbc  Code  Gb  rom.o [11]
HalWdgIntrHandle        0x00003485    0x4e  Code  Gb  rom.o [11]
HalWlDmaIntrHandle      0x00003895    0x50  Code  Gb  rom.o [11]
HalWlProtocolIntrHandle
                        0x000038e5    0x50  Code  Gb  rom.o [11]
Hal_ChannelPlanToRegulation
                        0x1003d02d    0x86  Code  Gb  hal_com_phycfg.o [8]
Hal_EfuseGetCurrentSize
                        0x1003e67b     0xe  Code  Lc  rtl8195a_hal_init.o [8]
Hal_EfuseParseChnlPlan_8195A
                        0x1003f51d    0x38  Code  Gb  rtl8195a_hal_init.o [8]
Hal_EfuseParseCustomerID_8195A
                        0x1003f555    0x16  Code  Gb  rtl8195a_hal_init.o [8]
Hal_EfuseParseEEPROMVer_8195A
                        0x1003f4bf    0x16  Code  Gb  rtl8195a_hal_init.o [8]
Hal_EfuseParseIDCode    0x1003f23f    0x18  Code  Gb  rtl8195a_hal_init.o [8]
Hal_EfuseParsePackageType_8195A
                        0x1003f4d5    0x48  Code  Gb  rtl8195a_hal_init.o [8]
Hal_EfuseParseThermalMeter_8195A
                        0x1003f585    0x28  Code  Gb  rtl8195a_hal_init.o [8]
Hal_EfuseParseTxPowerInfo_8195A
                        0x1003f40f    0xb0  Code  Gb  rtl8195a_hal_init.o [8]
Hal_EfuseParseXtal_8195A
                        0x1003f56b    0x1a  Code  Gb  rtl8195a_hal_init.o [8]
Hal_EfusePgPacketRead   0x1003e7cf    0xd8  Code  Lc  rtl8195a_hal_init.o [8]
Hal_EfusePgPacketWrite  0x1003e9f1   0x10c  Code  Lc  rtl8195a_hal_init.o [8]
Hal_EfusePgPacketWrite_BT
                        0x1003eb07     0x4  Code  Lc  rtl8195a_hal_init.o [8]
Hal_EfusePowerSwitch    0x1003e423     0xa  Code  Lc  rtl8195a_hal_init.o [8]
Hal_EfuseWordEnableDataWrite
                        0x1003e689   0x128  Code  Lc  rtl8195a_hal_init.o [8]
Hal_GetChnlGroup8195A   0x1003f12d    0xde  Code  Gb  rtl8195a_hal_init.o [8]
Hal_GetEfuseDefinition  0x1003e3bd    0x66  Code  Lc  rtl8195a_hal_init.o [8]
Hal_InitPGData          0x1003f20b    0x34  Code  Gb  rtl8195a_hal_init.o [8]
Hal_MappingOutPipe      0x1002a6b7    0x4c  Code  Gb  hal_com.o [8]
Hal_ReadEFuse           0x1003e589    0x18  Code  Lc  rtl8195a_hal_init.o [8]
Hal_ReadPowerValueFromPROM_8195A
                        0x1003f257   0x1b8  Code  Gb  rtl8195a_hal_init.o [8]
Hal_ReadRFGainOffset    0x1003f5ad    0x3e  Code  Gb  rtl8195a_hal_init.o [8]
HardFault_Handler       0x0000010d          Code  Gb  rom.o [11]
HwRateToMRate           0x1002a419   0x1ae  Code  Gb  hal_com.o [8]
I2CDmaChNo              0x000312a0    0x14  Data  Gb  rom.o [11]
I2CISRHandle            0x0000ac91   0x7a4  Code  Wk  rom.o [11]
I2CIsTimeout            0x0000ac65    0x2a  Code  Wk  rom.o [11]
I2CRXGDMAISRHandle      0x0000b4c1    0x8c  Code  Wk  rom.o [11]
I2CTXGDMAISRHandle      0x0000b435    0x8c  Code  Wk  rom.o [11]
IMAGE1$$Base            0x10000bc8           --   Gb  - Linker created -
IMAGE1$$Limit           0x10004294           --   Gb  - Linker created -
IMAGE1_DBG$$Base        0x1fff0000           --   Gb  - Linker created -
IMAGE1_DBG$$Limit       0x1fff24c0           --   Gb  - Linker created -
IMAGE2$$Base            0x10006000           --   Gb  - Linker created -
IMAGE2$$Limit           0x10050880           --   Gb  - Linker created -
INCLargeInteger         0x1003929f    0x24  Code  Lc  rtw_psk.o [8]
INCOctet16_INTEGER      0x100392c3    0x4a  Code  Lc  rtw_psk.o [8]
INCOctet32_INTEGER      0x1003930d    0x6c  Code  Lc  rtw_psk.o [8]
ISR_BcnEarly            0x10029b4f    0x54  Code  Gb  rtl8195a_pmu_task.o [8]
ISR_MtiBcnEarly         0x10029bb3    0x26  Code  Gb  rtl8195a_pmu_task.o [8]
ISR_RxBCMD0             0x10029c55    0x34  Code  Gb  rtl8195a_pmu_task.o [8]
ISR_RxBCMD1             0x10029c0b    0x20  Code  Gb  rtl8195a_pmu_task.o [8]
ISR_RxBcn               0x10029bed    0x1e  Code  Gb  rtl8195a_pmu_task.o [8]
ISR_RxUCMD0             0x10029ce3    0x2a  Code  Gb  rtl8195a_pmu_task.o [8]
ISR_RxUCMD1             0x10029c9d    0x32  Code  Gb  rtl8195a_pmu_task.o [8]
ISR_TBTT                0x10029e91    0x6c  Code  Gb  rtl8195a_pmu_task.o [8]
ISR_TXCCX               0x10029d29     0x2  Code  Gb  rtl8195a_pmu_task.o [8]
ISR_TxPktIn             0x10029d13    0x16  Code  Gb  rtl8195a_pmu_task.o [8]
InfraStart              0x10006079    0x96  Code  Gb  startup.o [6]
InitCheckStateTimer     0x1002878f    0x22  Code  Gb  rtl8195a_pmu_task.o [8]
InitGTimer1ms           0x10028851    0x42  Code  Gb  rtl8195a_pmu_task.o [8]
InitInterrupt8195a      0x1003312b    0x1c  Code  Gb  lxbus_ops.o [8]
InitLxDmaRtl8195a       0x10032d6f   0x11e  Code  Gb  lxbus_ops.o [8]
InitPS                  0x10028c31    0x80  Code  Gb  rtl8195a_pmu_task.o [8]
InitSYSIRQ              0x10038c01    0x1c  Code  Gb  hal_soc_ps_monitor.o [2]
InitSoCPM               0x10038d8f    0x30  Code  Gb  hal_soc_ps_monitor.o [2]
InitTDMATimer           0x10028617    0x24  Code  Gb  rtl8195a_pmu_task.o [8]
Init_ODM_ComInfo_8195a  0x1003add5    0xcc  Code  Lc  rtl8195a_dm.o [8]
InitialRateUpdate       0x1003b16b    0xd0  Code  Gb  Hal8195ARateAdaptive.o [8]
InterruptHandle8195a    0x100331b9   0x1cc  Code  Gb  lxbus_ops.o [8]
InterruptRecognized8195a
                        0x10033047    0x7a  Code  Gb  lxbus_ops.o [8]
IsForceLoadDefaultImg2  0x1fff177f    0x66  Code  Gb  startup.o [6]
Isspace                 0x0000e7ed    0x12  Code  Gb  rom.o [11]
IssueNullData           0x10028a83    0x80  Code  Gb  rtl8195a_pmu_task.o [8]
IssuePSPoll             0x10028b0b    0x1c  Code  Gb  rtl8195a_pmu_task.o [8]
IssueRsvdPagePacketSetting
                        0x10028a15    0x6e  Code  Gb  rtl8195a_pmu_task.o [8]
K                       0x000363b8   0x280  Data  Lc  rom.o [11]
KK                      0x00036294   0x100  Data  Lc  rom.o [11]
KT0                     0x00031fb0   0x400  Data  Lc  rom.o [11]
KT1                     0x000323b0   0x400  Data  Lc  rom.o [11]
KT2                     0x000327b0   0x400  Data  Lc  rom.o [11]
KT3                     0x00031bb0   0x400  Data  Lc  rom.o [11]
LPS_Enter               0x1001ebf3    0x64  Code  Gb  rtw_pwrctrl.o [8]
LPS_Leave               0x1001ec57    0x44  Code  Gb  rtw_pwrctrl.o [8]
LPS_RF_ON_check         0x1001eba3    0x50  Code  Gb  rtw_pwrctrl.o [8]
LeaveAllPowerSaveMode   0x1001ec9b    0x22  Code  Gb  rtw_pwrctrl.o [8]
Legacy_PS_Setting       0x10028d29    0x68  Code  Gb  rtl8195a_pmu_task.o [8]
LwIP_AUTOIP             0x10016ccd    0x52  Code  Gb  lwip_netconf.o [2]
LwIP_DHCP               0x10016b8d    0xfe  Code  Gb  lwip_netconf.o [2]
LwIP_GetGW              0x10016c9b     0x4  Code  Gb  lwip_netconf.o [2]
LwIP_GetIP              0x10016c97     0x4  Code  Gb  lwip_netconf.o [2]
LwIP_GetMAC             0x10016c93     0x4  Code  Gb  lwip_netconf.o [2]
LwIP_Init               0x10016af5    0x76  Code  Gb  lwip_netconf.o [2]
LwIP_UseStaticIP        0x10016c9f    0x2e  Code  Gb  lwip_netconf.o [2]
MARVELL_OUI             0x10027640     0x4  Data  Gb  rtw_wlan_util.o [8]
MCS_rate_1R             0x10030520    0x10  Data  Gb  rtw_mlme_ext.o [8]
MCS_rate_2R             0x10030530    0x10  Data  Gb  rtw_mlme_ext.o [8]
MRateToHwRate           0x1002a29d   0x17c  Code  Gb  hal_com.o [8]
MSG_Init                0x1000dc85    0x36  Code  Gb  zc_message_queue.o [2]
MSG_InitQueue           0x1000dcbb    0x28  Code  Gb  zc_message_queue.o [2]
MSG_PopMsg              0x1000dcfd    0x1a  Code  Gb  zc_message_queue.o [2]
MSG_PushMsg             0x1000dce3    0x1a  Code  Gb  zc_message_queue.o [2]
MSG_RecvData            0x1000dd17    0xe6  Code  Gb  zc_message_queue.o [2]
MSG_RecvDataFromCloud   0x1000de17    0x4a  Code  Gb  zc_message_queue.o [2]
MSG_SendDataToCloud     0x1000de69    0x3e  Code  Gb  zc_message_queue.o [2]
MediaConnection         0x1004534d     0xc  Code  Gb  rtl8195a_pmu_cmd.o [8]
MediaDisconnection      0x10045359     0xa  Code  Gb  rtl8195a_pmu_cmd.o [8]
MemManage_Handler       0x00000121          Code  Gb  rom.o [11]
MemTest                 0x1fff2293    0x4c  Code  Gb  hal_sdr_controller.o [2]
Message_ReplayCounter_OC2LI
                        0x1003921d    0x30  Code  Lc  rtw_psk.o [8]
Message_SmallerEqualReplayCounter
                        0x1003924d    0x32  Code  Lc  rtw_psk.o [8]
Message_setReplayCounter
                        0x1003927f    0x20  Code  Lc  rtw_psk.o [8]
NMI_Handler             0x00000109          Code  Gb  rom.o [11]
NULL_hdl                0x1003200f     0x4  Code  Gb  rtw_mlme_ext.o [8]
NewVectorTable          0x10000000   0x100  Data  Gb  rom.o [11]
Noisy_State             0x1004e2dc     0x1  Data  Gb  Hal8195ARateAdaptive.o [8]
ODM_CfoTracking         0x10044b97    0x1e  Code  Gb  phydm_CfoTracking.o [8]
ODM_CfoTrackingInit     0x10044b6d    0x2a  Code  Gb  phydm_CfoTracking.o [8]
ODM_CmnInfoHook         0x100430cd    0x94  Code  Gb  phydm.o [8]
ODM_CmnInfoInit         0x10042fd1    0xfa  Code  Gb  phydm.o [8]
ODM_CmnInfoPtrArrayHook
                        0x10043161     0xe  Code  Gb  phydm.o [8]
ODM_CmnInfoUpdate       0x1004316f    0xa6  Code  Gb  phydm.o [8]
ODM_ConfigBBWithHeaderFile
                        0x10043717    0x28  Code  Gb  phydm_HWConfig.o [8]
ODM_ConfigMACWithHeaderFile
                        0x1004373f    0x12  Code  Gb  phydm_HWConfig.o [8]
ODM_ConfigRFWithHeaderFile
                        0x100436cd    0x1e  Code  Gb  phydm_HWConfig.o [8]
ODM_ConfigRFWithTxPwrTrackHeaderFile
                        0x100436eb    0x2c  Code  Gb  phydm_HWConfig.o [8]
ODM_DMInit              0x10042f0d    0x4e  Code  Gb  phydm.o [8]
ODM_DMWatchdog          0x10042f5b    0x76  Code  Gb  phydm.o [8]
ODM_GetBBReg            0x10043315     0x2  Code  Gb  phydm_interface.o [8]
ODM_GetRFReg            0x1004332d     0x6  Code  Gb  phydm_interface.o [8]
ODM_GetRightChnlPlaceforIQK
                        0x10044ae3    0x34  Code  Gb  HalPhyRf.o [8]
ODM_Get_Rate_Bitmap     0x10043ef3   0x106  Code  Gb  phydm_RaInfo.o [8]
ODM_InitDebugSetting    0x10044e2d    0x14  Code  Gb  phydm_debug.o [8]
ODM_InitRAInfo          0x1003b0e9    0x82  Code  Gb  Hal8195ARateAdaptive.o [8]
ODM_MoveMemory          0x10043333     0xa  Code  Gb  phydm_interface.o [8]
ODM_ParsingCFO          0x10044bb5    0x34  Code  Gb  phydm_CfoTracking.o [8]
ODM_PhyStatusQuery      0x100436cb     0x2  Code  Gb  phydm_HWConfig.o [8]
ODM_PhyStatusQuery_8195A
                        0x1004369d    0x24  Code  Gb  phydm_HWConfig.o [8]
ODM_RAPostActionOnAssoc
                        0x10043ca1     0x8  Code  Gb  phydm_RaInfo.o [8]
ODM_RAStateCheck        0x10043eaf    0x44  Code  Gb  phydm_RaInfo.o [8]
ODM_Read1Byte           0x100432ed     0x6  Code  Gb  phydm_interface.o [8]
ODM_Read4Byte           0x100432f3     0x6  Code  Gb  phydm_interface.o [8]
ODM_ReadAndConfig_MP_8195A_AGC_TAB
                        0x10045105    0x60  Code  Gb  HalHWImg8195A_BB.o [8]
ODM_ReadAndConfig_MP_8195A_MAC_REG
                        0x100452dd    0x66  Code  Gb  HalHWImg8195A_MAC.o [8]
ODM_ReadAndConfig_MP_8195A_PHY_REG
                        0x10045165    0x62  Code  Gb  HalHWImg8195A_BB.o [8]
ODM_ReadAndConfig_MP_8195A_PHY_REG_PG
                        0x100451d7    0x32  Code  Gb  HalHWImg8195A_BB.o [8]
ODM_ReadAndConfig_MP_8195A_RadioA
                        0x10044f25    0x5a  Code  Gb  HalHWImg8195A_RF.o [8]
ODM_ReadAndConfig_MP_8195A_TXPWR_LMT
                        0x10044ff1    0x36  Code  Gb  HalHWImg8195A_RF.o [8]
ODM_ReadAndConfig_MP_8195A_TxPowerTrack_QFN48
                        0x10044f8f     0xc  Code  Gb  HalHWImg8195A_RF.o [8]
ODM_ReadAndConfig_MP_8195A_TxPowerTrack_QFN56
                        0x10044f9b     0xa  Code  Gb  HalHWImg8195A_RF.o [8]
ODM_ReadAndConfig_MP_8195A_TxPowerTrack_TFBGA96
                        0x10044fe5     0xc  Code  Gb  HalHWImg8195A_RF.o [8]
ODM_ResetIQKResult      0x10044aa9    0x3a  Code  Gb  HalPhyRf.o [8]
ODM_SetBBReg            0x1004330d     0x2  Code  Gb  phydm_interface.o [8]
ODM_SetMACReg           0x1004330b     0x2  Code  Gb  phydm_interface.o [8]
ODM_SetRFReg            0x1004331d    0x10  Code  Gb  phydm_interface.o [8]
ODM_TXPowerTrackingCallback_ThermalMeter
                        0x10044671   0x404  Code  Gb  HalPhyRf.o [8]
ODM_TXPowerTrackingCheck
                        0x10044ce9     0xe  Code  Gb  phydm_PowerTracking.o [8]
ODM_TxPwrTrackSetPwr_8195A
                        0x10041329   0x44e  Code  Gb  HalPhyRf_8195A.o [8]
ODM_Write1Byte          0x100432f9     0x6  Code  Gb  phydm_interface.o [8]
ODM_Write2Byte          0x100432ff     0x6  Code  Gb  phydm_interface.o [8]
ODM_Write4Byte          0x10043305     0x6  Code  Gb  phydm_interface.o [8]
ODM_Write_CCK_CCA_Thres
                        0x10044181    0x24  Code  Gb  phydm_DIG.o [8]
ODM_Write_DIG           0x10044039    0x62  Code  Gb  phydm_DIG.o [8]
ODM_delay_ms            0x1004333d     0x4  Code  Gb  phydm_interface.o [8]
ODM_delay_us            0x10043341     0x4  Code  Gb  phydm_interface.o [8]
OFDMSwingTable_New      0x10044d80    0xac  Data  Gb  phydm_PowerTracking.o [8]
OVSR                    0x00030d1c    0x74  Data  Gb  rom.o [11]
OVSR_ADJ                0x00030e04    0x74  Data  Gb  rom.o [11]
O_RR                    0x10051534    0x58  Data  Gb  bignum.o [2]
O_T                     0x1005158c    0x58  Data  Gb  bignum.o [2]
O_T1                    0x100513d4    0x58  Data  Gb  bignum.o [2]
O_T2                    0x1005137c    0x58  Data  Gb  bignum.o [2]
O_W                     0x100515e4  0x1600  Data  Gb  bignum.o [2]
OnAction                0x1002f65f    0x14  Code  Gb  rtw_mlme_ext.o [8]
OnAction_back           0x1002f589    0xd6  Code  Gb  rtw_mlme_ext.o [8]
OnAssocReq              0x1002ec61   0x586  Code  Gb  rtw_mlme_ext.o [8]
OnAssocRsp              0x1002f205   0x120  Code  Gb  rtw_mlme_ext.o [8]
OnAuth                  0x1002e961   0x228  Code  Gb  rtw_mlme_ext.o [8]
OnAuthClient            0x1002eb89    0xd2  Code  Gb  rtw_mlme_ext.o [8]
OnBeacon                0x1002e85b   0x104  Code  Gb  rtw_mlme_ext.o [8]
OnDeAuth                0x1002f325    0xb6  Code  Gb  rtw_mlme_ext.o [8]
OnDisassoc              0x1002f3f3    0xb4  Code  Gb  rtw_mlme_ext.o [8]
OnProbeReq              0x1002e785    0xba  Code  Gb  rtw_mlme_ext.o [8]
OnProbeRsp              0x1002e849    0x12  Code  Gb  rtw_mlme_ext.o [8]
P2P_OUI                 0x1000755c     0x4  Data  Gb  rtw_mlme_ext.o [8]
P802_1H_OUI             0x1004e294     0x4  Data  Lc  rtw_xmit.o [8]
PADDING                 0x000353b0    0x40  Data  Lc  rom.o [11]
PCT_CheckCrc            0x1000a805    0x32  Code  Gb  zc_protocol_controller.o [2]
PCT_ConnectCloud        0x1000aa6b    0x20  Code  Gb  zc_protocol_controller.o [2]
PCT_DisConnectCloud     0x1000aa55    0x16  Code  Gb  zc_protocol_controller.o [2]
PCT_HandleEvent         0x1000b153    0xfc  Code  Gb  zc_protocol_controller.o [2]
PCT_HandleMoudleEvent   0x1000ab25    0x42  Code  Gb  zc_protocol_controller.o [2]
PCT_HandleMoudleMsg     0x1000b0c7    0x40  Code  Gb  zc_protocol_controller.o [2]
PCT_HandleOtaBeginMsg   0x1000adb9    0x20  Code  Gb  zc_protocol_controller.o [2]
PCT_HandleOtaEndMsg     0x1000b073    0x44  Code  Gb  zc_protocol_controller.o [2]
PCT_HandleOtaFileBeginMsg
                        0x1000af45    0x62  Code  Gb  zc_protocol_controller.o [2]
PCT_HandleOtaFileChunkMsg
                        0x1000afb5    0xa0  Code  Gb  zc_protocol_controller.o [2]
PCT_HandleOtaFileEndMsg
                        0x1000b05f    0x14  Code  Gb  zc_protocol_controller.o [2]
PCT_HandleUnbindMsg     0x1000acdb    0x48  Code  Gb  zc_protocol_controller.o [2]
PCT_Init                0x1000a899    0x4e  Code  Gb  zc_protocol_controller.o [2]
PCT_ModuleOtaFileBeginMsg
                        0x1000add9    0x80  Code  Gb  zc_protocol_controller.o [2]
PCT_ModuleOtaFileChunkMsg
                        0x1000ae71    0xb2  Code  Gb  zc_protocol_controller.o [2]
PCT_ModuleOtaFileEndMsg
                        0x1000af23    0x22  Code  Gb  zc_protocol_controller.o [2]
PCT_ReconnectCloud      0x1000aa8b    0x70  Code  Gb  zc_protocol_controller.o [2]
PCT_RecvAccessMsg2      0x1000ab67    0xd6  Code  Gb  zc_protocol_controller.o [2]
PCT_RecvAccessMsg4      0x1000ac3d    0x90  Code  Gb  zc_protocol_controller.o [2]
PCT_ResetNetWork        0x1000b12f    0x1e  Code  Gb  zc_protocol_controller.o [2]
PCT_Run                 0x1000b265    0x26  Code  Gb  zc_protocol_controller.o [2]
PCT_SendAckToCloud      0x1000ad93    0x14  Code  Gb  zc_protocol_controller.o [2]
PCT_SendCloudAccessMsg1
                        0x1000a92b    0xb6  Code  Gb  zc_protocol_controller.o [2]
PCT_SendCloudAccessMsg3
                        0x1000a9e1    0x68  Code  Gb  zc_protocol_controller.o [2]
PCT_SendEmptyMsg        0x1000a8e7    0x20  Code  Gb  zc_protocol_controller.o [2]
PCT_SendErrorMsg        0x1000a917    0x14  Code  Gb  zc_protocol_controller.o [2]
PCT_SendHeartMsg        0x1000a85f    0x3a  Code  Gb  zc_protocol_controller.o [2]
PCT_SendMoudleTimeout   0x1000aafb    0x2a  Code  Gb  zc_protocol_controller.o [2]
PCT_SendMsgToCloud      0x1000b2f5    0x9c  Code  Gb  zc_protocol_controller.o [2]
PCT_SendNotifyMsg       0x1000a837    0x28  Code  Gb  zc_protocol_controller.o [2]
PCT_SendUnbindMsg       0x1000ad23    0x5a  Code  Gb  zc_protocol_controller.o [2]
PCT_SetTokenKey         0x1000b113    0x16  Code  Gb  zc_protocol_controller.o [2]
PCT_Sleep               0x1000b2ab    0x3e  Code  Gb  zc_protocol_controller.o [2]
PCT_WakeUp              0x1000b28b    0x20  Code  Gb  zc_protocol_controller.o [2]
PER_RATE_DOWN           0x1004e2e0    0x14  Data  Gb  Hal8195ARateAdaptive.o [8]
PER_RATE_UP             0x1004e2f4    0x14  Data  Gb  Hal8195ARateAdaptive.o [8]
PHY_BBConfig8195A       0x10040ad5    0x9a  Code  Gb  rtl8195a_phycfg.o [8]
PHY_ConvertTxPowerLimitToPowerIndex
                        0x1003cc35    0xdc  Code  Gb  hal_com_phycfg.o [8]
PHY_DM_RA_SetRSSI_8195A
                        0x1003b82d    0x32  Code  Gb  Hal8195ARateAdaptive.o [8]
PHY_GetRateIndexOfTxPowerByRate
                        0x1003c559   0x340  Code  Gb  hal_com_phycfg.o [8]
PHY_GetRateValuesOfTxPowerByRate
                        0x1003babb   0x49a  Code  Gb  hal_com_phycfg.o [8]
PHY_GetTxPowerByRate    0x1003c899    0x62  Code  Gb  hal_com_phycfg.o [8]
PHY_GetTxPowerByRateBase
                        0x1003b861    0x5e  Code  Gb  hal_com_phycfg.o [8]
PHY_GetTxPowerIndex     0x1003cf8d    0x52  Code  Gb  hal_com_phycfg.o [8]
PHY_GetTxPowerIndexBase
                        0x1003c3e1   0x140  Code  Gb  hal_com_phycfg.o [8]
PHY_GetTxPowerIndex_8195A
                        0x10040cb1    0xbe  Code  Gb  rtl8195a_phycfg.o [8]
PHY_GetTxPowerLimit     0x1003ca67   0x1ce  Code  Gb  hal_com_phycfg.o [8]
PHY_GetTxPowerTrackingOffset
                        0x1003c521    0x38  Code  Gb  hal_com_phycfg.o [8]
PHY_HandleSwChnlAndSetBW8195A
                        0x1004112d    0xb6  Code  Gb  rtl8195a_phycfg.o [8]
PHY_IQCalibrate_8195A   0x100426c5   0x24a  Code  Gb  HalPhyRf_8195A.o [8]
PHY_InitTxPowerByRate   0x1003c047    0x72  Code  Gb  hal_com_phycfg.o [8]
PHY_InitTxPowerLimit    0x1003cd11    0x4e  Code  Gb  hal_com_phycfg.o [8]
PHY_LCCalibrate_8195A   0x1004294f    0x4e  Code  Gb  HalPhyRf_8195A.o [8]
PHY_MACConfig8195A      0x10040a11    0x1e  Code  Gb  rtl8195a_phycfg.o [8]
PHY_QueryBBReg_8195A    0x00018279    0x22  Code  Gb  rom.o [11]
PHY_QueryBBReg_8195A_Safe
                        0x1004086d    0x32  Code  Gb  rtl8195a_phycfg.o [8]
PHY_QueryRFReg_8195A    0x1004099f    0x18  Code  Gb  rtl8195a_phycfg.o [8]
PHY_RF6052SetBandwidth8195A
                        0x100444f1    0x52  Code  Gb  rtl8195a_rf6052.o [8]
PHY_RF6052_Config8195A  0x1004464b    0x16  Code  Gb  rtl8195a_rf6052.o [8]
PHY_RFConfig8195A       0x10040b6f     0x4  Code  Gb  rtl8195a_phycfg.o [8]
PHY_SetBBReg_8195A      0x00018239    0x3e  Code  Gb  rom.o [11]
PHY_SetBBReg_8195A_Safe
                        0x1004089f    0x32  Code  Gb  rtl8195a_phycfg.o [8]
PHY_SetBWMode8195A      0x100411e3    0x1c  Code  Gb  rtl8195a_phycfg.o [8]
PHY_SetRFReg_8195A      0x100409b7    0x5a  Code  Gb  rtl8195a_phycfg.o [8]
PHY_SetSwChnlBWMode8195A
                        0x10041219    0x18  Code  Gb  rtl8195a_phycfg.o [8]
PHY_SetTxPowerByRate    0x1003c8fb    0x3e  Code  Gb  hal_com_phycfg.o [8]
PHY_SetTxPowerIndex     0x1003cfdf    0x4c  Code  Gb  hal_com_phycfg.o [8]
PHY_SetTxPowerIndexByRateArray
                        0x1003c9cf    0x3a  Code  Gb  hal_com_phycfg.o [8]
PHY_SetTxPowerIndexByRateSection
                        0x1003c2cf    0xa4  Code  Gb  hal_com_phycfg.o [8]
PHY_SetTxPowerIndex_8195A
                        0x10040b73   0x126  Code  Gb  rtl8195a_phycfg.o [8]
PHY_SetTxPowerLevel8195A
                        0x10040d6f     0x6  Code  Gb  rtl8195a_phycfg.o [8]
PHY_SetTxPowerLevelByPath
                        0x1003c947    0x80  Code  Gb  hal_com_phycfg.o [8]
PHY_SetTxPowerLimit     0x1003cd5f   0x1de  Code  Gb  hal_com_phycfg.o [8]
PHY_StoreTxPowerByRate  0x1003c0b9    0x22  Code  Gb  hal_com_phycfg.o [8]
PHY_StoreTxPowerByRateNew
                        0x1003bfad    0x9a  Code  Gb  hal_com_phycfg.o [8]
PHY_SwChnl8195A         0x100411ff    0x12  Code  Gb  rtl8195a_phycfg.o [8]
PHY_TxPowerByRateConfiguration
                        0x1003c2bf    0x10  Code  Gb  hal_com_phycfg.o [8]
PMUInitial              0x10029f15    0x40  Code  Gb  rtl8195a_pmu_task.o [8]
PMUTask                 0x10029f7f    0xec  Code  Gb  rtl8195a_pmu_task.o [8]
PSBcnEarlyProcess       0x100296c5    0x82  Code  Gb  rtl8195a_pmu_task.o [8]
PSHalInitPlatformLogUart
                        0x10038a4f    0x78  Code  Gb  hal_soc_ps_monitor.o [2]
PSModeSetting           0x10028d91    0x94  Code  Gb  rtl8195a_pmu_task.o [8]
PSMtiBcnEarlyProcess    0x10029771    0x60  Code  Gb  rtl8195a_pmu_task.o [8]
PSRxBcnProcess          0x1002980b   0x124  Code  Gb  rtl8195a_pmu_task.o [8]
PSSetMode               0x10028e4d    0x68  Code  Gb  rtl8195a_pmu_task.o [8]
PS_32K_Condition_Match  0x10028f49    0x28  Code  Gb  rtl8195a_pmu_task.o [8]
PS_OnBeacon             0x10029629    0x92  Code  Gb  rtl8195a_pmu_task.o [8]
PS_RDY_CHECK            0x1001eab5    0x7e  Code  Gb  rtw_pwrctrl.o [8]
PS_S0ToS1ToS2State      0x1002905f    0x48  Code  Gb  rtl8195a_pmu_task.o [8]
PS_S0ToS6State          0x100291af    0x22  Code  Gb  rtl8195a_pmu_task.o [8]
PS_S1ToS0orS2State      0x10029107    0x22  Code  Gb  rtl8195a_pmu_task.o [8]
PS_S2ToS0State          0x1002901d    0x16  Code  Gb  rtl8195a_pmu_task.o [8]
PS_S2ToS3ToS0State      0x10028f71    0x58  Code  Gb  rtl8195a_pmu_task.o [8]
PS_S2ToS4State          0x1002913d    0x36  Code  Gb  rtl8195a_pmu_task.o [8]
PS_S2ToS5State          0x10029179     0xa  Code  Gb  rtl8195a_pmu_task.o [8]
PS_S2_Condition_Match   0x10028eb5    0x2e  Code  Gb  rtl8195a_pmu_task.o [8]
PS_S3ToS2orS0State      0x1002903d    0x22  Code  Gb  rtl8195a_pmu_task.o [8]
PS_S4ToS2State          0x10029189    0x26  Code  Gb  rtl8195a_pmu_task.o [8]
PS_S4_Condition_Match   0x10028ee3    0x66  Code  Gb  rtl8195a_pmu_task.o [8]
PS_S6ToS0State          0x100291dd    0x16  Code  Gb  rtl8195a_pmu_task.o [8]
PatchHalLogUartInit     0x100389c1    0x8e  Code  Gb  hal_soc_ps_monitor.o [2]
PhyDM_Get_Structure     0x100432c5    0x1a  Code  Gb  phydm.o [8]
Phydm_Adaptivity        0x10042e6f    0x96  Code  Gb  PhyDM_Adaptivity.o [8]
Phydm_AdaptivityInit    0x10042da9    0xc6  Code  Gb  PhyDM_Adaptivity.o [8]
Phydm_CalNHMcnt         0x10042d03    0x32  Code  Gb  PhyDM_Adaptivity.o [8]
Phydm_CheckAdaptivity   0x10042b69    0x50  Code  Gb  PhyDM_Adaptivity.o [8]
Phydm_CheckEnvironment  0x10042d35    0x64  Code  Gb  PhyDM_Adaptivity.o [8]
Phydm_GetNHMCounterStatistics
                        0x10042c3d    0x20  Code  Gb  PhyDM_Adaptivity.o [8]
Phydm_MACEDCCAState     0x10042cc9    0x2e  Code  Gb  PhyDM_Adaptivity.o [8]
Phydm_NHMCounterStatistics
                        0x10042c23    0x1a  Code  Gb  PhyDM_Adaptivity.o [8]
Phydm_NHMCounterStatisticsInit
                        0x10042bb9    0x6a  Code  Gb  PhyDM_Adaptivity.o [8]
Phydm_NHMCounterStatisticsReset
                        0x10042c5d    0x24  Code  Gb  PhyDM_Adaptivity.o [8]
Phydm_SetEDCCAThreshold
                        0x10042c8d    0x32  Code  Gb  PhyDM_Adaptivity.o [8]
PowerBitSetting         0x1002893f    0x60  Code  Gb  rtl8195a_pmu_task.o [8]
PreProcessForVendor     0x1fff17e5   0x282  Code  Gb  startup.o [6]
PsBcnToProcess          0x10029999    0x9c  Code  Gb  rtl8195a_pmu_task.o [8]
PsCloseRF               0x10028b99    0x38  Code  Gb  rtl8195a_pmu_task.o [8]
PsOpenRF                0x10028bd1    0x2a  Code  Gb  rtl8195a_pmu_task.o [8]
PsuseTxrpt              0x1003acbd    0x10  Code  Gb  rtl8195a_dm.o [8]
PwrAdapter              0x10053398   0x28c  Data  Gb  hal_soc_ps_monitor.o [2]
QueryRegPwrState        0x10039017    0x2c  Code  Gb  hal_soc_ps_monitor.o [2]
RALINK_OUI              0x10027644     0x4  Data  Gb  rtw_wlan_util.o [8]
RAM_IMG1_VALID_PATTEN   0x1fff0014     0x8  Data  Gb  startup.o [6]
RAM_IMG2_VALID_PATTEN   0x10006004    0x14  Data  Gb  startup.o [6]
RATaskEnable            0x1004537d    0x26  Code  Gb  rtl8195a_pmu_cmd.o [8]
RCON                    0x00031788    0x28  Data  Lc  rom.o [11]
REALTEK_96B_IE          0x100086e0     0x8  Data  Gb  rtw_wlan_util.o [8]
REALTEK_OUI             0x10027648     0x4  Data  Gb  rtw_wlan_util.o [8]
RFC1042_OUI             0x1004e298     0x4  Data  Lc  rtw_xmit.o [8]
ROMInfo                 0x10000720    0x18  Data  Gb  rom.o [11]
ROM_IMG1_VALID_PATTEN   0x00030c80     0x5  Data  Gb  rom.o [11]
ROM_ODM_CfoTrackingReset
                        0x000187e9    0x26  Code  Gb  rom.o [11]
ROM_odm_CfoTrackingFlow
                        0x00018811   0x1fe  Code  Gb  rom.o [11]
ROM_odm_EVMdbToPercentage
                        0x000182bd    0x26  Code  Gb  rom.o [11]
ROM_odm_FalseAlarmCounterStatistics
                        0x000183cd   0x352  Code  Gb  rom.o [11]
ROM_odm_GetDefaultCrytaltalCap
                        0x000187d5    0x12  Code  Gb  rom.o [11]
ROM_odm_QueryRxPwrPercentage
                        0x0001829d    0x1e  Code  Gb  rom.o [11]
ROM_odm_SetCrystalCap   0x00018771    0x62  Code  Gb  rom.o [11]
ROM_odm_SetEDCCAThreshold
                        0x00018721    0x28  Code  Gb  rom.o [11]
ROM_odm_SetTRxMux       0x00018749    0x28  Code  Gb  rom.o [11]
ROM_odm_SignalScaleMapping_8195A
                        0x000182e5    0xe8  Code  Gb  rom.o [11]
RPWMProcess             0x10029a41    0x42  Code  Gb  rtl8195a_pmu_task.o [8]
RSN_AUTH_KEY_MGMT_PSK_OVER_802_1X
                        0x00035444     0x4  Data  Gb  rom.o [11]
RSN_AUTH_KEY_MGMT_UNSPEC_802_1X
                        0x00035448     0x4  Data  Gb  rom.o [11]
RSN_CIPHER_SUITE_CCMP   0x00035430     0x4  Data  Gb  rom.o [11]
RSN_CIPHER_SUITE_NONE   0x00035424     0x4  Data  Gb  rom.o [11]
RSN_CIPHER_SUITE_TKIP   0x0003542c     0x4  Data  Gb  rom.o [11]
RSN_CIPHER_SUITE_WEP104
                        0x00035434     0x4  Data  Gb  rom.o [11]
RSN_CIPHER_SUITE_WEP40  0x00035428     0x4  Data  Gb  rom.o [11]
RSN_TKIP_CIPHER         0x10007560     0x4  Data  Gb  rtw_mlme_ext.o [8]
RSN_VERSION_BSD         0x0003544c     0x2  Data  Gb  rom.o [11]
RSb                     0x00034bb0   0x400  Data  Lc  rom.o [11]
RT0                     0x00033bb0   0x400  Data  Lc  rom.o [11]
RT1                     0x000343b0   0x400  Data  Lc  rom.o [11]
RT2                     0x000347b0   0x400  Data  Lc  rom.o [11]
RT3                     0x00033fb0   0x400  Data  Lc  rom.o [11]
RTW_ChannelPlan2G       0x1002e5f0    0x5c  Data  Lc  rtw_mlme_ext.o [8]
RTW_ChannelPlanMap      0x1002e53c    0xb4  Data  Lc  rtw_mlme_ext.o [8]
RTW_WPA_OUI             0x10030540     0x4  Data  Gb  rtw_mlme_ext.o [8]
RTW_WPA_OUI_TYPE        0x0003540c     0x4  Data  Gb  rom.o [11]
Rand                    0x0000f585    0x88  Code  Gb  rom.o [11]
RateDecisionRAM8195A    0x1003b4e9    0xcc  Code  Gb  Hal8195ARateAdaptive.o [8]
RateDownStepRAM8195A    0x1003b453    0x8e  Code  Gb  Hal8195ARateAdaptive.o [8]
RateDownTrying          0x1003b417    0x3c  Code  Gb  Hal8195ARateAdaptive.o [8]
RateDown_search_RateMask
                        0x1003b277    0x44  Code  Gb  Hal8195ARateAdaptive.o [8]
RateUpRAM8195A          0x1003b38f    0x88  Code  Gb  Hal8195ARateAdaptive.o [8]
RateUp_search_RateMask  0x1003b249    0x2e  Code  Gb  Hal8195ARateAdaptive.o [8]
ReFillCpuClk            0x10038d73    0x1c  Code  Gb  hal_soc_ps_monitor.o [2]
ReadAdapterInfo8195a    0x100382dd    0x2e  Code  Lc  lxbus_halinit.o [8]
ReadEFuseByte           0x1003dd03    0x6a  Code  Gb  rtw_efuse.o [8]
ReadHWPwrState          0x10038e33   0x1e4  Code  Gb  hal_soc_ps_monitor.o [2]
ReadRateMask8           0x1003ac79     0xa  Code  Gb  rtl8195a_dm.o [8]
ReadTxrpt8              0x1003ac85     0xa  Code  Gb  rtl8195a_dm.o [8]
RegPowerState           0x10038dc1    0x72  Code  Gb  hal_soc_ps_monitor.o [2]
Region$$Table$$Base     0x10050828           --   Gb  - Linker created -
Region$$Table$$Limit    0x10050880           --   Gb  - Linker created -
ResendTimeout           0x10039a51    0x80  Code  Lc  rtw_psk.o [8]
ResetPSParm             0x10028cb1    0x6c  Code  Gb  rtl8195a_pmu_task.o [8]
ResetTxrpt              0x1003ac91    0x2c  Code  Gb  rtl8195a_dm.o [8]
Reset_Handler           0x00000101          Code  Gb  rom.o [11]
Restore_DM_Func_Flag    0x1002699f     0x4  Code  Gb  rtw_wlan_util.o [8]
ResumeTxBeacon          0x1003ec27    0x30  Code  Lc  rtl8195a_hal_init.o [8]
RtkADCDMAInit           0x10045805   0x102  Code  Lc  hal_adc.o [2]
RtkADCDeInit            0x10045a21    0xb8  Code  Gb  hal_adc.o [2]
RtkADCEnablePS          0x10045c2f    0x12  Code  Gb  hal_adc.o [2]
RtkADCInit              0x10045911   0x110  Code  Gb  hal_adc.o [2]
RtkADCLoadDefault       0x10045bc1    0x64  Code  Gb  hal_adc.o [2]
RtkADCPinMuxDeInit      0x100457db    0x24  Code  Lc  hal_adc.o [2]
RtkADCPinMuxInit        0x100457bb    0x20  Code  Gb  hal_adc.o [2]
RtkADCReceiveBuf        0x10045ae3    0xde  Code  Gb  hal_adc.o [2]
RtkI2CDMADeInit         0x0000bdad    0xa0  Code  Wk  rom.o [11]
RtkI2CDMAInit           0x0000b955   0x33e  Code  Wk  rom.o [11]
RtkI2CDeInit            0x0000be4d    0x98  Code  Wk  rom.o [11]
RtkI2CInit              0x0000bc95   0x118  Code  Wk  rom.o [11]
RtkI2CIoCtrl            0x0000aa61     0x4  Code  Wk  rom.o [11]
RtkI2CIrqDeInit         0x0000b611    0x62  Code  Wk  rom.o [11]
RtkI2CIrqInit           0x0000b54d    0xc2  Code  Wk  rom.o [11]
RtkI2CLoadDefault       0x0000ce51    0xd0  Code  Wk  rom.o [11]
RtkI2CPinMuxDeInit      0x0000b7c9   0x18c  Code  Wk  rom.o [11]
RtkI2CPinMuxInit        0x0000b675   0x152  Code  Wk  rom.o [11]
RtkI2CPowerCtrl         0x0000aa65     0x4  Code  Wk  rom.o [11]
RtkI2CReceive           0x0000c6dd   0x772  Code  Wk  rom.o [11]
RtkI2CSend              0x0000c07d   0x65e  Code  Wk  rom.o [11]
RtkI2CSendUserAddr      0x0000bee5   0x196  Code  Wk  rom.o [11]
RtkSalI2COpInit         0x0000cf21    0x42  Code  Wk  rom.o [11]
RtlBootToSram           0x1fff15b9   0x18a  Code  Gb  startup.o [6]
RtlConsolInit           0x0000ecc5    0x84  Code  Gb  rom.o [11]
RtlConsolInitRam        0x10008b7b    0x9c  Code  Gb  rtl_consol.o [2]
RtlConsolRom            0x0000edcd    0x3e  Code  Gb  rom.o [11]
RtlConsolTaskRam        0x10008c19    0x2a  Code  Gb  rtl_consol.o [2]
RtlConsolTaskRom        0x0000ed49    0x30  Code  Gb  rom.o [11]
RtlDownSema             0x1001ba1d    0x14  Code  Gb  osdep_api.o [2]
RtlExitConsol           0x0000ed79    0x54  Code  Gb  rom.o [11]
RtlInitSema             0x1001b9e9     0xe  Code  Gb  osdep_api.o [2]
RtlMalloc               0x1001b9cd    0x18  Code  Gb  osdep_api.o [2]
RtlMfree                0x1001b9e5     0x4  Code  Gb  osdep_api.o [2]
RtlUdelayOS             0x1001ba31     0x4  Code  Gb  osdep_api.o [2]
RtlUpSema               0x1001b9f7     0xc  Code  Gb  osdep_api.o [2]
RtlUpSemaFromISR        0x1001ba03    0x1a  Code  Gb  osdep_api.o [2]
RuartIsTimeout          0x00005385    0x2a  Code  Wk  rom.o [11]
RuartLock               0x00004cc9    0x24  Code  Wk  rom.o [11]
RuartResetRxFifoRtl8195a
                        0x00005751    0x24  Code  Wk  rom.o [11]
RuartUnLock             0x00004ced    0x1c  Code  Wk  rom.o [11]
SCMapping_8195A         0x1003f621    0x7a  Code  Gb  rtl8195a_hal_init.o [8]
SC_connect_to_AP        0x10010811    0xf8  Code  Gb  wifi_simple_config.o [2]
SC_send_simple_config_ack
                        0x100105e9    0x78  Code  Gb  wifi_simple_config.o [2]
SC_set_ack_content      0x10010599    0x48  Code  Gb  wifi_simple_config.o [2]
SDRSleep                0x10038af9    0xb4  Code  Gb  hal_soc_ps_monitor.o [2]
SDRWakeUp               0x10038ac7    0x32  Code  Gb  hal_soc_ps_monitor.o [2]
SEC_AesDecrypt          0x1000f495    0x3a  Code  Gb  zc_sec_engine.o [2]
SEC_AesEncrypt          0x1000f457    0x3e  Code  Gb  zc_sec_engine.o [2]
SEC_Decrypt             0x1000f571    0x64  Code  Gb  zc_sec_engine.o [2]
SEC_DecryptTextByRsa    0x1000f2c5    0xb8  Code  Gb  zc_sec_engine.o [2]
SEC_Encrypt             0x1000f509    0x5c  Code  Gb  zc_sec_engine.o [2]
SEC_EncryptTextByRsa    0x1000f1fd    0xc0  Code  Gb  zc_sec_engine.o [2]
SEC_InitRsaContextWithPrivateKey
                        0x1000f3bf    0x8a  Code  Gb  zc_sec_engine.o [2]
SEC_InitRsaContextWithPublicKey
                        0x1000f391    0x2e  Code  Gb  zc_sec_engine.o [2]
SEC_PaddingCheck        0x1000f4cf    0x3a  Code  Gb  zc_sec_engine.o [2]
SHT$$INIT_ARRAY$$Base   0x10008a9c           --   Gb  - Linker created -
SHT$$INIT_ARRAY$$Limit  0x10008a9c           --   Gb  - Linker created -
SHT$$PREINIT_ARRAY$$Base
                        0x10008a9c           --   Gb  - Linker created -
SHT$$PREINIT_ARRAY$$Limit
                        0x10008a9c           --   Gb  - Linker created -
SNAP_ETH_TYPE_APPLETALK_AARP
                        0x100204ac     0x2  Data  Gb  rtw_recv.o [8]
SNAP_ETH_TYPE_IPX       0x100204a8     0x2  Data  Gb  rtw_recv.o [8]
SSI_DBG_CONFIG          0x10000350     0x4  Data  Gb  rom.o [11]
STACK_TOP {Abs}         0x1ffffffc           --   Gb  rom.o [11]
SYSAdapte               0x10053624     0x4  Data  Gb  hal_soc_ps_monitor.o [2]
SYSCpuClkConfig         0x1fff1743    0x3c  Code  Gb  startup.o [6]
SYSIrqHandle            0x10038bcd    0x34  Code  Gb  hal_soc_ps_monitor.o [2]
SYSPlatformInit         0x1000605d    0x1c  Code  Gb  startup.o [6]
SalAdcEnableState       0x1005336d     0x1  Data  Gb  hal_adc.o [2]
SalAdcInitialDatKeep    0x10053370    0x28  Data  Gb  hal_adc.o [2]
SalAdcInitialFlag       0x1005336c     0x1  Data  Gb  hal_adc.o [2]
Save_DM_Func_Flag       0x10026999     0x6  Code  Gb  rtw_wlan_util.o [8]
SdrCalibration          0x1fff1fc5   0x270  Code  Gb  hal_sdr_controller.o [2]
SdrControllerInit       0x1fff1cbf    0x84  Code  Gb  hal_sdr_controller.o [2]
SdrCtrlInit             0x1fff1ca5    0x1a  Code  Gb  hal_sdr_controller.o [2]
SdrDramDev              0x1fff001c    0x10  Data  Gb  hal_sdr_controller.o [2]
SdrDramInfo             0x1fff007c    0x14  Data  Gb  hal_sdr_controller.o [2]
SdrDramModeReg          0x1fff002c    0x1c  Data  Gb  hal_sdr_controller.o [2]
SdrDramTiming           0x1fff0048    0x34  Data  Gb  hal_sdr_controller.o [2]
Sdr_Rand2               0x1fff2257    0x3c  Code  Gb  hal_sdr_controller.o [2]
SelectChannel           0x10026a0d    0x2a  Code  Gb  rtw_wlan_util.o [8]
SendEAPOL               0x10039ad9   0x4b6  Code  Gb  rtw_psk.o [8]
SetBWMode               0x10026a37    0x30  Code  Gb  rtw_wlan_util.o [8]
SetEAPOL_KEYIV          0x10039381    0x60  Code  Lc  rtw_psk.o [8]
SetHalDefVar8195A       0x10040659     0x4  Code  Gb  rtl8195a_hal_init.o [8]
SetHalDefVar8195AB      0x100383ff    0xa8  Code  Gb  lxbus_halinit.o [8]
SetHalODMVar8195A       0x10040681    0xd0  Code  Gb  rtl8195a_hal_init.o [8]
SetHwReg                0x1002a971     0xa  Code  Gb  hal_com.o [8]
SetHwReg8195A           0x1004005d   0x518  Code  Gb  rtl8195a_hal_init.o [8]
SetHwReg8195AB          0x1003830b    0x8a  Code  Gb  lxbus_halinit.o [8]
SetMediaStatus          0x100453a3    0x36  Code  Gb  rtl8195a_pmu_cmd.o [8]
SetPwrStateReg          0x10028bfb    0x1c  Code  Gb  rtl8195a_pmu_task.o [8]
SetSYSTimer             0x10039043    0x2e  Code  Gb  hal_soc_ps_monitor.o [2]
SetSmartPSTimer         0x100295af    0x40  Code  Gb  rtl8195a_pmu_task.o [8]
SetTxbdForLxDMARtl8195ab
                        0x1003d1df    0x7e  Code  Gb  rtl8195a_xmit.o [8]
Set_MSR                 0x100269bf    0x18  Code  Gb  rtw_wlan_util.o [8]
ShowRamBuildInfo        0x1004d559     0x2  Code  Gb  app_start.o [6]
SleepCG                 0x10039071    0xae  Code  Gb  hal_soc_ps_monitor.o [2]
SleepTo32K              0x10029399    0x60  Code  Gb  rtl8195a_pmu_task.o [8]
SmartPS2InitTimerAndToGetRxPkt
                        0x100295f1    0x30  Code  Gb  rtl8195a_pmu_task.o [8]
SpeRPT                  0x10029a83    0xcc  Code  Gb  rtl8195a_pmu_task.o [8]
SpiFlashApp             0x00003279   0x13a  Code  Gb  rom.o [11]
SpicCalibrationPattern  0x00030c88    0x10  Data  Gb  rom.o [11]
SpicCalibrationRtl8195A
                        0x10008f2b   0x204  Code  Gb  hal_spi_flash_ram.o [6]
SpicCmpDataForCalibrationRtl8195A
                        0x00003049    0x38  Code  Gb  rom.o [11]
SpicConfigAutoModeRtl8195A
                        0x10009167    0x3a  Code  Gb  hal_spi_flash_ram.o [6]
SpicDisableRtl8195A     0x1000946d     0xc  Code  Gb  hal_spi_flash_ram.o [6]
SpicEraseFlashRtl8195A  0x000031bd    0xbc  Code  Gb  rom.o [11]
SpicFlashInitRtl8195A   0x10008dbb    0x9c  Code  Gb  hal_spi_flash_ram.o [6]
SpicGetFlashFlagRtl8195A
                        0x100091bf    0x58  Code  Gb  hal_spi_flash_ram.o [6]
SpicGetFlashStatusRefinedRtl8195A
                        0x10009329    0x32  Code  Gb  hal_spi_flash_ram.o [6]
SpicGetFlashStatusRtl8195A
                        0x00002eb5    0xa0  Code  Gb  rom.o [11]
SpicInitCPUCLK          0x00030c98    0x10  Data  Gb  rom.o [11]
SpicInitParaAllClk      0x10057cdc    0x90  Data  Gb  hal_spi_flash_ram.o [6]
SpicInitRefinedRtl8195A
                        0x1000935b    0x84  Code  Gb  hal_spi_flash_ram.o [6]
SpicInitRtl8195A        0x000030e5    0xd6  Code  Gb  rom.o [11]
SpicLoadInitParaFromClockRtl8195A
                        0x00003081    0x64  Code  Gb  rom.o [11]
SpicNVMCalLoad          0x10009479    0x88  Code  Gb  hal_spi_flash_ram.o [6]
SpicNVMCalLoadAll       0x10009501    0x1c  Code  Gb  hal_spi_flash_ram.o [6]
SpicNVMCalStore         0x1000951d   0x10e  Code  Gb  hal_spi_flash_ram.o [6]
SpicOneBitCalibrationRtl8195A
                        0x10009457    0x16  Code  Gb  hal_spi_flash_ram.o [6]
SpicReadIDRtl8195A      0x10008e5d    0xce  Code  Gb  hal_spi_flash_ram.o [6]
SpicRxCmdRefinedRtl8195A
                        0x10009259    0xd0  Code  Gb  hal_spi_flash_ram.o [6]
SpicRxCmdRtl8195A       0x00002e5d    0x46  Code  Gb  rom.o [11]
SpicSectorEraseFlashRtl8195A
                        0x10008d97     0x8  Code  Gb  hal_spi_flash_ram.o [6]
SpicSetFlashStatusRefinedRtl8195A
                        0x100093df    0x5a  Code  Gb  hal_spi_flash_ram.o [6]
SpicSetFlashStatusRtl8195A
                        0x00002fc1    0x86  Code  Gb  rom.o [11]
SpicTxCmdRtl8195A       0x00002f6d    0x54  Code  Gb  rom.o [11]
SpicTxCmdWithDataRtl8195A
                        0x10008c99    0x9c  Code  Gb  hal_spi_flash_ram.o [6]
SpicTxFlashInstRtl8195A
                        0x10008d35    0x5c  Code  Gb  hal_spi_flash_ram.o [6]
SpicWaitBusyDoneRtl8195A
                        0x00002ea5    0x10  Code  Gb  rom.o [11]
SpicWaitOperationDoneRtl8195A
                        0x10009229    0x22  Code  Gb  hal_spi_flash_ram.o [6]
SpicWaitWipDoneRefinedRtl8195A
                        0x100091a1    0x1e  Code  Gb  hal_spi_flash_ram.o [6]
SpicWaitWipDoneRtl8195A
                        0x00002f55    0x16  Code  Gb  rom.o [11]
SpicWaitWipRtl8195A     0x1000944d     0xa  Code  Gb  hal_spi_flash_ram.o [6]
StartRateByRSSI         0x1003b2c7    0x2c  Code  Gb  Hal8195ARateAdaptive.o [8]
StartupHalInitPlatformLogUart
                        0x1004ab5b    0x42  Code  Lc  startup.o [6]
StartupHalInitialROMCodeGlobalVar
                        0x1004aac5    0x14  Code  Lc  startup.o [6]
StartupHalLogUartInit   0x1004aad9    0x82  Code  Lc  startup.o [6]
StopTxBeacon            0x1003ec57    0x34  Code  Lc  rtl8195a_hal_init.o [8]
StrUpr                  0x0000f749    0x1e  Code  Gb  rom.o [11]
Strtoul                 0x0000e801    0xae  Code  Gb  rom.o [11]
SubStr                  0x1003920f     0xe  Code  Lc  rtw_psk.o [8]
Switch_DM_Func          0x100269b1     0xe  Code  Gb  rtw_wlan_util.o [8]
SysClkDown              0x100292d5    0x64  Code  Gb  rtl8195a_pmu_task.o [8]
SysClkUp                0x10029341    0x4a  Code  Gb  rtl8195a_pmu_task.o [8]
SystemCoreClock         0x1004dc38     0x4  Data  Gb  system_8195a.o [2]
SystemCoreClockUpdate   0x1004a9b9     0x4  Code  Gb  system_8195a.o [2]
T                       0x100538d0    0x58  Data  Gb  rsa.o [2]
T1                      0x10053928    0x58  Data  Gb  rsa.o [2]
T2                      0x10053980    0x58  Data  Gb  rsa.o [2]
TCM_overlay$$Base       0x1fff0000           --   Gb  - Linker created -
TCM_overlay$$Limit      0x1ffff338           --   Gb  - Linker created -
TDMAChangeStateTask     0x10028737    0x24  Code  Gb  rtl8195a_pmu_task.o [8]
TIMER_AllocateTimer     0x1000b6e3    0x14  Code  Gb  zc_timer.o [2]
TIMER_FindIdleTimer     0x1000b6c7    0x1c  Code  Gb  zc_timer.o [2]
TIMER_Init              0x1000b6b5    0x12  Code  Gb  zc_timer.o [2]
TIMER_StopTimer         0x1000b77d    0x10  Code  Gb  zc_timer.o [2]
TIMER_TimeoutAction     0x1000b6f9    0x84  Code  Gb  zc_timer.o [2]
TKIP_Sbox1              0x00035588   0x400  Data  Lc  rom.o [11]
TRYING_NECESSARY_idx    0x1004e31c    0x14  Data  Gb  Hal8195ARateAdaptive.o [8]
TaskOTA                 0x10053c28     0x4  Data  Gb  update.o [2]
Td0                     0x1000cc44   0x400  Data  Lc  aes_core.o [2]
Td1                     0x1000d044   0x400  Data  Lc  aes_core.o [2]
Td2                     0x1000d444   0x400  Data  Lc  aes_core.o [2]
Td3                     0x1000d844   0x400  Data  Lc  aes_core.o [2]
Td4                     0x10006d7c   0x400  Data  Lc  aes_core.o [2]
Te0                     0x1000617c   0x400  Data  Lc  aes_core.o [2]
Te1                     0x1000657c   0x400  Data  Lc  aes_core.o [2]
Te2                     0x1000697c   0x400  Data  Lc  aes_core.o [2]
Te3                     0x1000c0d4   0x400  Data  Lc  aes_core.o [2]
Te4                     0x1000c4d4   0x400  Data  Lc  aes_core.o [2]
Timer2To7HandlerData    0x10053a18    0x18  Data  Gb  rtl8195a_timer.o [2]
Timer2To7VectorTable    0x10000358    0x18  Data  Gb  rom.o [11]
Timer_callback          0x1000e3e7    0x40  Code  Gb  zc_hf_adpter.o [2]
ToDrv_DisconnectSTA     0x10039869    0xba  Code  Lc  rtw_psk.o [8]
ToDrv_SetGTK            0x100397bf    0x98  Code  Gb  rtw_psk.o [8]
ToDrv_SetPTK            0x10039701    0xbe  Code  Lc  rtw_psk.o [8]
ToDrv_SetPort           0x10039857    0x12  Code  Lc  rtw_psk.o [8]
TryDone                 0x1003b2f3    0x6c  Code  Gb  Hal8195ARateAdaptive.o [8]
TxPktInPSOn             0x10029951    0x30  Code  Gb  rtl8195a_pmu_task.o [8]
UartLogBuf              0x100003ac    0x80  Data  Gb  rtl_consol.o [2]
UartLogCmdChk           0x0000eadd   0x118  Code  Gb  rom.o [11]
UartLogCmdExecute       0x0000e95d    0x9e  Code  Gb  rom.o [11]
UartLogCtl              0x10000384    0x28  Data  Gb  rtl_consol.o [2]
UartLogHistoryBuf       0x1000042c   0x27c  Data  Gb  rtl_consol.o [2]
UartLogHistoryCmd       0x0000ea71    0x6c  Code  Gb  rom.o [11]
UartLogIrqHandle        0x0000ebf5    0xce  Code  Gb  rom.o [11]
UartLogIrqHandleRam     0x10008acd    0xae  Code  Gb  rtl_consol.o [2]
UartLogRecallOldCmd     0x0000ea39    0x36  Code  Gb  rom.o [11]
UartLogRomCmdTable      0x000316a0    0x60  Data  Gb  rom.o [11]
UartLogShowBackSpace    0x0000e9fd    0x3c  Code  Gb  rom.o [11]
UpdateBrateTbl          0x10026941    0x30  Code  Gb  rtw_wlan_util.o [8]
UpdateBrateTblForSoftAP
                        0x10026971    0x28  Code  Gb  rtw_wlan_util.o [8]
UpdateFirstTxbdtoXmitBuf
                        0x1003d509    0x32  Code  Lc  rtl8195a_xmit.o [8]
UpdateHalRAMask8195A    0x1003ed51   0x16c  Code  Gb  rtl8195a_hal_init.o [8]
UpdateInterruptMask8195a
                        0x100330c1    0x6a  Code  Gb  lxbus_ops.o [8]
UpdateTxbdHostIndex     0x1003d25d    0x5a  Code  Gb  rtl8195a_xmit.o [8]
Update_ODM_ComInfo_8195a
                        0x1003aeb9    0xea  Code  Lc  rtl8195a_dm.o [8]
Update_RA_Entry         0x1002735d     0x8  Code  Gb  rtw_wlan_util.o [8]
UsageFault_Handler      0x00000129          Code  Gb  rom.o [11]
UserIrqDataTable        0x10000200   0x100  Data  Gb  rom.o [11]
UserIrqFunTable         0x10000100   0x100  Data  Gb  rom.o [11]
VCS_update              0x10026f4d    0x3c  Code  Gb  rtw_wlan_util.o [8]
VSprintf                0x0000f129   0x272  Code  Gb  rom.o [11]
VectorIrqDisRtl8195A    0x0000418d    0xa0  Code  Gb  rom.o [11]
VectorIrqEnRtl8195A     0x000040f1    0x9a  Code  Gb  rom.o [11]
VectorIrqRegisterRtl8195A
                        0x00004029    0x66  Code  Gb  rom.o [11]
VectorIrqUnRegisterRtl8195A
                        0x00004091    0x60  Code  Gb  rom.o [11]
VectorTableInitForOSRtl8195A
                        0x00004019    0x10  Code  Gb  rom.o [11]
VectorTableInitRtl8195A
                        0x00003de5   0x232  Code  Gb  rom.o [11]
VectorTableOverrideRtl8195A
                        0x10006051     0xc  Code  Gb  startup.o [6]
WIFI_CCKRATES           0x00035400     0x4  Data  Lc  rom.o [11]
WIFI_OFDMRATES          0x00035404     0x8  Data  Lc  rom.o [11]
WMMOnAssocRsp           0x10026c85    0xe4  Code  Gb  rtw_wlan_util.o [8]
WMM_INFO_OUI            0x1002f1e8     0x8  Data  Gb  rtw_mlme_ext.o [8]
WMM_OUI                 0x10032a50     0x4  Data  Gb  rtw_mlme_ext.o [8]
WMM_PARA_OUI            0x100301dc     0x8  Data  Gb  rtw_mlme_ext.o [8]
WMM_param_handler       0x10026c5d    0x28  Code  Gb  rtw_wlan_util.o [8]
WPA2_SUITE_1X           0x0003543c     0x4  Data  Lc  rom.o [11]
WPA_CIPHER_SUITE_CCMP   0x0003541c     0x4  Data  Gb  rom.o [11]
WPA_CIPHER_SUITE_NONE   0x00035410     0x4  Data  Gb  rom.o [11]
WPA_CIPHER_SUITE_TKIP   0x00035418     0x4  Data  Gb  rom.o [11]
WPA_CIPHER_SUITE_WEP104
                        0x00035420     0x4  Data  Gb  rom.o [11]
WPA_CIPHER_SUITE_WEP40  0x00035414     0x4  Data  Gb  rom.o [11]
WPA_SUITE_1X            0x00035438     0x4  Data  Lc  rom.o [11]
WPS_OUI                 0x10032a54     0x4  Data  Gb  rtw_mlme_ext.o [8]
WPS_realloc             0x00017d51    0x48  Code  Gb  rom.o [11]
WaitTxStateMachineOk    0x10028b27    0x42  Code  Gb  rtl8195a_pmu_task.o [8]
WakeFromSLPPG           0x10038c21    0xdc  Code  Gb  hal_soc_ps_monitor.o [2]
WriteRateMask8          0x1003ac83     0x2  Code  Gb  rtl8195a_dm.o [8]
WriteTxrpt8             0x1003ac8f     0x2  Code  Gb  rtl8195a_dm.o [8]
X                       0x1005142c    0x58  Data  Gb  bignum.o [2]
Y                       0x10051484    0x58  Data  Gb  bignum.o [2]
Z                       0x100514dc    0x58  Data  Gb  bignum.o [2]
ZC_CheckClientIdle      0x1000df3f    0x16  Code  Gb  zc_client_manager.o [2]
ZC_ClientConnect        0x1000df09    0x20  Code  Gb  zc_client_manager.o [2]
ZC_ClientDisconnect     0x1000dedd    0x2c  Code  Gb  zc_client_manager.o [2]
ZC_ClientInit           0x1000df29    0x16  Code  Gb  zc_client_manager.o [2]
ZC_ClientSleep          0x1000df85     0x2  Code  Gb  zc_client_manager.o [2]
ZC_ClientWakeUp         0x1000df7d     0x8  Code  Gb  zc_client_manager.o [2]
ZC_ConfigInitPara       0x1000a411    0x58  Code  Gb  zc_configuration.o [2]
ZC_ConfigPara           0x1000a469    0x7c  Code  Gb  zc_configuration.o [2]
ZC_ConfigReset          0x1000a621     0x2  Code  Gb  zc_configuration.o [2]
ZC_ConfigUnBind         0x1000a5ff    0x14  Code  Gb  zc_configuration.o [2]
ZC_DealExtCode          0x10009f85    0x4a  Code  Gb  zc_moudle_manager.o [2]
ZC_DealSessionOpt       0x10009e6d   0x118  Code  Gb  zc_moudle_manager.o [2]
ZC_GetStoreInfor        0x1000a5cd    0x32  Code  Gb  zc_configuration.o [2]
ZC_HexToString          0x1000b8ad    0x3e  Code  Gb  zc_common.o [2]
ZC_Rand                 0x1000b851    0x5c  Code  Gb  zc_common.o [2]
ZC_RecvDataFromClient   0x1000df87   0x1ea  Code  Gb  zc_client_manager.o [2]
ZC_RecvDataFromMoudle   0x10009fcf   0x128  Code  Gb  zc_moudle_manager.o [2]
ZC_SendBc               0x10011d35    0x66  Code  Gb  zc_bc.o [2]
ZC_SendClientQueryReq   0x10011d9b    0x98  Code  Gb  zc_bc.o [2]
ZC_SetClientBusy        0x1000df55     0xa  Code  Gb  zc_client_manager.o [2]
ZC_StartClientListen    0x1000df5f    0x1e  Code  Gb  zc_client_manager.o [2]
ZC_StoreAccessInfo      0x1000a591    0x32  Code  Gb  zc_configuration.o [2]
ZC_StoreRegisterInfo    0x1000a4fd    0x60  Code  Gb  zc_configuration.o [2]
ZC_StoreTokenKey        0x1000a55d    0x1e  Code  Gb  zc_configuration.o [2]
ZC_TraceData            0x1000b7d1    0x76  Code  Gb  zc_common.o [2]
_AppStart               0x1004d55d    0x1a  Code  Gb  app_start.o [6]
_GPIO_EXT_PORT_TBL      0x00031598     0x3  Data  Lc  rom.o [11]
_GPIO_PinMap_Chip2IP_8195a
                        0x000312b4    0xb8  Data  Lc  rom.o [11]
_GPIO_PinMap_PullCtrl_8195a
                        0x0003136c   0x228  Data  Lc  rom.o [11]
_GPIO_SWPORT_DDR_TBL    0x00031594     0x3  Data  Lc  rom.o [11]
_GPIO_SWPORT_DR_TBL     0x0003159c     0x3  Data  Lc  rom.o [11]
_GetN                   0x1001b4b9    0x22  Code  Lc  xscanfsmall_nomb.o [4]
_GetintSmallNoMb        0x1001b799   0x21c  Code  Lc  xscanfsmall_nomb.o [4]
_GetstrSmallNoMb        0x1001b6e3    0xb6  Code  Lc  xscanfsmall_nomb.o [4]
_HalGdmaOp              0x00031760    0x28  Data  Gb  rom.o [11]
_HalRuartOp             0x00031700    0x60  Data  Gb  rom.o [11]
_InitAdaptiveCtrl       0x10037d43    0x3c  Code  Gb  lxbus_halinit.o [8]
_InitBurstPktLen_8195AB
                        0x1003ec1d     0xa  Code  Gb  rtl8195a_hal_init.o [8]
_InitDriverInfoSize     0x10037cb7     0xa  Code  Gb  lxbus_halinit.o [8]
_InitEDCA               0x10037d7f    0x66  Code  Gb  lxbus_halinit.o [8]
_InitInterrupt          0x10037eb1    0x3a  Code  Gb  lxbus_halinit.o [8]
_InitNetworkType        0x10037cc1    0x22  Code  Gb  lxbus_halinit.o [8]
_InitNormalChipQueuePriority
                        0x10037c0f    0xa8  Code  Lc  lxbus_halinit.o [8]
_InitNormalChipRegPriority
                        0x10037bb7    0x58  Code  Lc  lxbus_halinit.o [8]
_InitOperationMode      0x10037e55    0x56  Code  Gb  lxbus_halinit.o [8]
_InitPowerOn            0x10037b4d    0x62  Code  Gb  lxbus_halinit.o [8]
_InitRateFallback       0x10037deb    0x38  Code  Gb  lxbus_halinit.o [8]
_InitRetryFunction      0x10037e2d    0x28  Code  Gb  lxbus_halinit.o [8]
_InitWMACSetting        0x10037ce3    0x60  Code  Gb  lxbus_halinit.o [8]
_PHY_MACSettingCalibration8195A
                        0x1004206d    0x3c  Code  Gb  HalPhyRf_8195A.o [8]
_PHY_PIModeSwitch8195A  0x1004211d    0x3e  Code  Gb  HalPhyRf_8195A.o [8]
_PHY_PathADDAOn8195A    0x1004202b    0x2c  Code  Gb  HalPhyRf_8195A.o [8]
_PHY_PathAFillIQKMatrix8195A
                        0x10041ce9   0x100  Code  Gb  HalPhyRf_8195A.o [8]
_PHY_PathAStandBy8195A  0x100420b3    0x32  Code  Gb  HalPhyRf_8195A.o [8]
_PHY_PathBFillIQKMatrix8195A
                        0x10041e01    0xfa  Code  Gb  HalPhyRf_8195A.o [8]
_PHY_ReloadADDARegisters8195A
                        0x10041fa9    0x20  Code  Gb  HalPhyRf_8195A.o [8]
_PHY_ReloadMACRegisters8195A
                        0x10041feb    0x2c  Code  Gb  HalPhyRf_8195A.o [8]
_PHY_SaveADDARegisters8195A
                        0x10041f5f    0x20  Code  Gb  HalPhyRf_8195A.o [8]
_PHY_SaveMACRegisters8195A
                        0x10041f7f    0x2a  Code  Gb  HalPhyRf_8195A.o [8]
_PrintfTiny             0x1001c7b1   0x138  Code  Gb  xprintftiny.o [4]
_Prout                  0x1004d751    0x16  Code  Gb  xprout.o [4]
_RND4                   0x10032a59    0x10  Code  Lc  lxbus_ops.o [8]
_Rand_idx               0x1004d82c     0x4  Data  Lc  rand.o [4]
_Rand_rv                0x1004d830    0x80  Data  Lc  rand.o [4]
_Randinit               0x1004d824     0x1  Data  Gb  rand.o [4]
_Randseed               0x1004d828     0x4  Data  Gb  rand.o [4]
_ReadEfuseInfo8195a     0x1003822b    0xaa  Code  Lc  lxbus_halinit.o [8]
_SNProut                0x1000a7eb    0x1a  Code  Gb  xsnprout.o [4]
_SScin                  0x10009e4f    0x1e  Code  Gb  xsscin.o [4]
_ScanfSmallNoMb         0x1001b4f5   0x1e8  Code  Gb  xscanfsmall_nomb.o [4]
_SsiIrqHandle           0x00009eb1   0x1ae  Code  Wk  rom.o [11]
_SsiReadInterrupt       0x00009ba5   0x20c  Code  Wk  rom.o [11]
_SsiWriteInterrupt      0x00009db1    0xfe  Code  Wk  rom.o [11]
_ThreeOutPipeMapping    0x1002a695    0x22  Code  Lc  hal_com.o [8]
_TwoOutPipeMapping      0x1002a66f    0x26  Code  Lc  hal_com.o [8]
_UartIrqHandle          0x00004465   0x21c  Code  Wk  rom.o [11]
_UartRxDmaIrqHandle     0x0000422d    0x52  Code  Wk  rom.o [11]
_UartTxDmaIrqHandle     0x00004995    0x3c  Code  Wk  rom.o [11]
_UngetN                 0x1001b4db    0x1a  Code  Lc  xscanfsmall_nomb.o [4]
__AES_Te4               0x00030ea0   0x400  Data  Gb  rom.o [11]
__AES_rcon              0x00030e78    0x28  Data  Gb  rom.o [11]
__aeabi_errno_addr      0x10038951     0x6  Code  Gb  errno.o [4]
__aeabi_llsr            0x10044e41          Code  Gb  U64Shr.o [12]
__aeabi_memclr          0x1001d63d          Code  Gb  ABImemclr.o [12]
__aeabi_memclr4         0x10011e4d          Code  Gb  ABImemclr4.o [12]
__aeabi_memset          0x1001e7b1          Code  Gb  ABImemset.o [12]
__aeabi_memset4         0x1000b9a1          Code  Gb  ABImemset48.o [12]
__aeabi_memset8         0x1000b9a1          Code  Gb  ABImemset48.o [12]
__bss_end__             0x10055768     0x4  Data  Gb  startup.o [6]
__bss_start__           0x10055764     0x4  Data  Gb  startup.o [6]
__countLeadingZerosHigh
                        0x000315a0   0x100  Data  Lc  rom.o [11]
__iar_Errno             0x1004d8b0     0x4  Data  Gb  errno.o [4]
__iar_Memchr            0x1003895d          Code  Gb  memchr.o [12]
__iar_Memset            0x1001e7b1          Code  Gb  ABImemset.o [12]
__iar_Memset4_word      0x1000b9a9          Code  Gb  ABImemset48.o [12]
__iar_Memset8_word      0x1000b9a9          Code  Gb  ABImemset48.o [12]
__iar_Memset_word       0x1001e7b9          Code  Gb  ABImemset.o [12]
__iar_Stolx             0x10024e8b    0x86  Code  Gb  xstol.o [4]
__iar_Stoul             0x10025059     0x4  Code  Gb  xstoul.o [4]
__iar_Stoulx            0x10024f11   0x142  Code  Gb  xstoul.o [4]
__iar_Strchr            0x10024e75          Code  Gb  strchr.o [12]
__iar_data_init3        0x1004d6f9    0x28  Code  Gb  data_init.o [12]
__iar_data_init_app     0x1004aab9     0xc  Code  Gb  startup.o [6]
__iar_data_init_boot    0x1fff159d    0x1c  Code  Gb  startup.o [6]
__iar_dlib_perthread_access
                        0x1000f675     0x2  Code  Gb  xtls.o [4]
__iar_unaligned___aeabi_memcpy
                        0x10009d8d          Code  Gb  ABImemcpy_unaligned.o [12]
__iar_unaligned___aeabi_memcpy4
                        0x10009dad          Code  Gb  ABImemcpy_unaligned.o [12]
__iar_unaligned___aeabi_memcpy8
                        0x10009dad          Code  Gb  ABImemcpy_unaligned.o [12]
__iar_unaligned___aeabi_memmove
                        0x1000a399          Code  Gb  ABImemmove_unaligned.o [12]
__iar_unaligned___aeabi_memmove4
                        0x1000a399          Code  Gb  ABImemmove_unaligned.o [12]
__iar_unaligned___aeabi_memmove8
                        0x1000a399          Code  Gb  ABImemmove_unaligned.o [12]
__iar_unaligned_memcmp  0x1000e1a9          Code  Gb  memcmp_unaligned.o [12]
__iar_unaligned_strncpy
                        0x1004a94d          Code  Gb  strncpy_unaligned.o [12]
__iar_zero_init3        0x1000b9db    0x22  Code  Gb  zero_init3.o [12]
__image1_bss_end__      0x1fff14e0     0x4  Data  Gb  startup.o [6]
__image1_bss_start__    0x1fff14dc     0x4  Data  Gb  startup.o [6]
__image1_validate_code__ {Abs}
                        0x10000bdc           --   Gb  command line/config [3]
__image2_entry_func__   0x1fff14d4     0x4  Data  Gb  startup.o [6]
__image2_validate_code__
                        0x1fff14d8     0x4  Data  Gb  startup.o [6]
__list_add              0x10016589     0xa  Code  Lc  osdep_service.o [2]
__log_init_begin__      0x10053800     0x4  Data  Gb  log_service.o [2]
__log_init_end__        0x10053804     0x4  Data  Gb  log_service.o [2]
__ram_start_table_start__ {Abs}
                        0x10000bc8           --   Gb  command line/config [3]
__rom_bss_end__ {Abs}   0x10000bc8           --   Gb  command line/config [3]
__rom_bss_start__ {Abs}
                        0x10000300           --   Gb  command line/config [3]
__rom_mallocr_init_v1_00
                        0x0002d7d1    0x6e  Code  Gb  rom.o [11]
__rtl_AES_set_encrypt_key
                        0x00006901   0x310  Code  Gb  rom.o [11]
__rtl_Balloc_v1_00      0x0002e515    0x5c  Code  Gb  rom.o [11]
__rtl_Bfree_v1_00       0x0002e571    0x12  Code  Gb  rom.o [11]
__rtl__strtok_r_v1_00   0x0002962d    0x64  Code  Gb  rom.o [11]
__rtl_align_to_be32_v1_00
                        0x00006881    0x16  Code  Gb  rom.o [11]
__rtl_calloc_r_v1_00    0x0002e441    0x66  Code  Gb  rom.o [11]
__rtl_cfree_r_v1_00     0x0002e4a9    0x10  Code  Gb  rom.o [11]
__rtl_cleanup_r         0x0002ef51    0x3c  Code  Lc  rom.o [11]
__rtl_close_v1_00       0x00029699    0x14  Code  Gb  rom.o [11]
__rtl_cmp_v1_00         0x0002e9bd    0x42  Code  Gb  rom.o [11]
__rtl_cos_f32_v1_00     0x0002c229   0x20c  Code  Gb  rom.o [11]
__rtl_critical_factorization_v1_00
                        0x000290e5    0xb8  Code  Lc  rom.o [11]
__rtl_cryptoEngine_AES_set_decrypt_key
                        0x00006c11    0x84  Code  Gb  rom.o [11]
__rtl_cryptoEngine_exit_v1_00
                        0x00007055    0x5c  Code  Gb  rom.o [11]
__rtl_cryptoEngine_init_v1_00
                        0x00006ea9   0x1ac  Code  Gb  rom.o [11]
__rtl_cryptoEngine_reset_v1_00
                        0x000070b1    0x3c  Code  Gb  rom.o [11]
__rtl_cryptoEngine_set_security_mode_v1_00
                        0x00006c95   0x212  Code  Gb  rom.o [11]
__rtl_cryptoEngine_v1_00
                        0x000070ed   0xb7a  Code  Gb  rom.o [11]
__rtl_crypto_cipher_decrypt_v1_00
                        0x00007cad    0x28  Code  Gb  rom.o [11]
__rtl_crypto_cipher_encrypt_v1_00
                        0x00007c89    0x24  Code  Gb  rom.o [11]
__rtl_crypto_cipher_init_v1_00
                        0x00007c69    0x1e  Code  Gb  rom.o [11]
__rtl_d2b_v1_00         0x0002e845    0xbc  Code  Gb  rom.o [11]
__rtl_dadd_v1_00        0x0002a825   0x6b2  Code  Gb  rom.o [11]
__rtl_dcmpeq_v1_00      0x0002be4d    0x6e  Code  Gb  rom.o [11]
__rtl_dcmpgt_v1_00      0x0002bf51    0xf6  Code  Gb  rom.o [11]
__rtl_dcmple_v1_00      0x0002c049    0xee  Code  Gb  rom.o [11]
__rtl_dcmplt_v1_00      0x0002bebd    0x92  Code  Gb  rom.o [11]
__rtl_ddiv_v1_00        0x0002b8ad   0x59e  Code  Gb  rom.o [11]
__rtl_diff_v1_00        0x0002ea01    0xe6  Code  Gb  rom.o [11]
__rtl_div64_32          0x00029739    0x82  Code  Lc  rom.o [11]
__rtl_dmul_v1_00        0x0002b555   0x358  Code  Gb  rom.o [11]
__rtl_dsub_v1_00        0x0002aed9   0x67a  Code  Gb  rom.o [11]
__rtl_dtoa_r_v1_00      0x0002c77d  0x1052  Code  Gb  rom.o [11]
__rtl_dtof_v1_00        0x00029de9    0x9e  Code  Gb  rom.o [11]
__rtl_dtoi64_v1_00      0x00029945    0x98  Code  Gb  rom.o [11]
__rtl_dtoi_v1_00        0x000298c5    0x80  Code  Gb  rom.o [11]
__rtl_dtoui_v1_00       0x000299dd     0x8  Code  Gb  rom.o [11]
__rtl_errno             0x10000bc4     0x4  Data  Gb  rom.o [11]
__rtl_fabs_v1_00        0x0002c639     0x6  Code  Gb  rom.o [11]
__rtl_fabsf_v1_00       0x0002c641     0x6  Code  Gb  rom.o [11]
__rtl_fadd_v1_00        0x00029f65   0x2fa  Code  Gb  rom.o [11]
__rtl_fclose_r          0x0002eec5    0x8c  Code  Lc  rom.o [11]
__rtl_fcmpgt_v1_00      0x0002c195    0x94  Code  Gb  rom.o [11]
__rtl_fcmplt_v1_00      0x0002c139    0x5c  Code  Gb  rom.o [11]
__rtl_fdiv_v1_00        0x0002a695   0x190  Code  Gb  rom.o [11]
__rtl_fflush_r_v1_00    0x0002ef8d    0x2a  Code  Gb  rom.o [11]
__rtl_fmul_v1_00        0x0002a559   0x13c  Code  Gb  rom.o [11]
__rtl_fpclassifyd       0x00030c15    0x50  Code  Gb  rom.o [11]
__rtl_free_r_v1_00      0x0002d841   0x1ee  Code  Gb  rom.o [11]
__rtl_fstat_v1_00       0x000296ad    0x14  Code  Gb  rom.o [11]
__rtl_fsub_v1_00        0x0002a261   0x2f8  Code  Gb  rom.o [11]
__rtl_ftod_v1_00        0x00029d2d    0xbc  Code  Gb  rom.o [11]
__rtl_ftol_v1_00        0x000299e5    0x6a  Code  Gb  rom.o [11]
__rtl_hi0bits_v1_00     0x0002e809    0x3c  Code  Gb  rom.o [11]
__rtl_i2b_v1_00         0x0002e585    0x12  Code  Gb  rom.o [11]
__rtl_i64tod_v1_00      0x00029b79    0xda  Code  Gb  rom.o [11]
__rtl_isatty_v1_00      0x000296c1    0x12  Code  Gb  rom.o [11]
__rtl_itod_v1_00        0x00029ae9    0x90  Code  Gb  rom.o [11]
__rtl_itof_v1_00        0x00029a51    0x98  Code  Gb  rom.o [11]
__rtl_lo0bits           0x0002e4b9    0x5a  Code  Lc  rom.o [11]
__rtl_lseek_v1_00       0x000296d5    0x14  Code  Gb  rom.o [11]
__rtl_lshift_v1_00      0x0002e901    0xbc  Code  Gb  rom.o [11]
__rtl_ltoa_v1_00        0x000297bd    0x96  Code  Gb  rom.o [11]
__rtl_malloc_av_        0x10000780   0x408  Data  Lc  rom.o [11]
__rtl_malloc_current_mallinfo
                        0x10000b9c    0x28  Data  Lc  rom.o [11]
__rtl_malloc_max_sbrked_mem
                        0x10000b94     0x4  Data  Lc  rom.o [11]
__rtl_malloc_max_total_mem
                        0x10000b98     0x4  Data  Lc  rom.o [11]
__rtl_malloc_r_v1_00    0x0002da31   0x522  Code  Gb  rom.o [11]
__rtl_malloc_sbrk_base  0x10000b90     0x4  Data  Lc  rom.o [11]
__rtl_malloc_top_pad    0x10000b8c     0x4  Data  Lc  rom.o [11]
__rtl_malloc_trim_threshold
                        0x10000b88     0x4  Data  Lc  rom.o [11]
__rtl_memDump_v1_00     0x000068f5     0xc  Code  Gb  rom.o [11]
__rtl_memDump_v1_00.part.7
                        0x00006745    0xd8  Code  Lc  rom.o [11]
__rtl_memalign_r_v1_00  0x0002e331    0xf0  Code  Gb  rom.o [11]
__rtl_memchr_v1_00      0x00028a4d    0x92  Code  Gb  rom.o [11]
__rtl_memcmp_v1_00      0x00028ae1    0x68  Code  Gb  rom.o [11]
__rtl_memcmpb_v1_00     0x0000681d    0x44  Code  Gb  rom.o [11]
__rtl_memcpy_v1_00      0x00028b49    0xa2  Code  Gb  rom.o [11]
__rtl_memcpyb_v1_00     0x000068dd    0x16  Code  Gb  rom.o [11]
__rtl_memcpyw_v1_00     0x000068bd    0x1e  Code  Gb  rom.o [11]
__rtl_memmove_v1_00     0x00028bed    0xc8  Code  Gb  rom.o [11]
__rtl_memset_v1_00      0x00028cb5    0x92  Code  Gb  rom.o [11]
__rtl_memsetb_v1_00     0x000068ad    0x10  Code  Gb  rom.o [11]
__rtl_memsetw_v1_00     0x00006899    0x12  Code  Gb  rom.o [11]
__rtl_mult_v1_00        0x0002e629   0x13e  Code  Gb  rom.o [11]
__rtl_multadd_v1_00     0x0002e599    0x90  Code  Gb  rom.o [11]
__rtl_open_v1_00        0x000296e9    0x14  Code  Gb  rom.o [11]
__rtl_pow5mult_v1_00    0x0002e769    0xa0  Code  Gb  rom.o [11]
__rtl_pvalloc_r_v1_00   0x0002e42d    0x14  Code  Gb  rom.o [11]
__rtl_random_v1_00      0x00006861    0x1e  Code  Gb  rom.o [11]
__rtl_read_v1_00        0x000296fd    0x14  Code  Gb  rom.o [11]
__rtl_realloc_r_v1_00   0x0002df55   0x3da  Code  Gb  rom.o [11]
__rtl_sbrk_r_v1_00      0x0002ec41    0x2c  Code  Gb  rom.o [11]
__rtl_sbrk_v1_00        0x00029725    0x12  Code  Gb  rom.o [11]
__rtl_sclose_v1_00      0x0002ec11    0x30  Code  Gb  rom.o [11]
__rtl_seofread_v1_00    0x0002eb39     0x4  Code  Gb  rom.o [11]
__rtl_sflush_r_v1_00    0x0002ec6d   0x152  Code  Lc  rom.o [11]
__rtl_sin_f32_v1_00     0x0002c435   0x202  Code  Gb  rom.o [11]
__rtl_sinit.part.3      0x0002edc1   0x104  Code  Lc  rom.o [11]
__rtl_sprint_r_v1_00.part.9
                        0x0002f255   0x40a  Code  Lc  rom.o [11]
__rtl_sread_v1_00       0x0002eae9    0x4e  Code  Gb  rom.o [11]
__rtl_sseek_v1_00       0x0002ebc1    0x4e  Code  Gb  rom.o [11]
__rtl_strcat_v1_00      0x00028d49    0x46  Code  Gb  rom.o [11]
__rtl_strchr_v1_00      0x00028d91    0xc4  Code  Gb  rom.o [11]
__rtl_strcmp_v1_00      0x00028e55    0x72  Code  Gb  rom.o [11]
__rtl_strcpy_v1_00      0x00028ec9    0x4a  Code  Gb  rom.o [11]
__rtl_strlen_v1_00      0x00028f15    0x52  Code  Gb  rom.o [11]
__rtl_strncat_v1_00     0x00028f69    0x5c  Code  Gb  rom.o [11]
__rtl_strncmp_v1_00     0x00028fc5    0xb6  Code  Gb  rom.o [11]
__rtl_strncpy_v1_00     0x0002907d    0x68  Code  Gb  rom.o [11]
__rtl_strsep_v1_00      0x0002960d     0xa  Code  Gb  rom.o [11]
__rtl_strstr_v1_00      0x000293cd   0x23e  Code  Gb  rom.o [11]
__rtl_strtok_r_v1_00    0x00029691     0x6  Code  Gb  rom.o [11]
__rtl_strtok_v1_00      0x00029619    0x12  Code  Gb  rom.o [11]
__rtl_swbuf_r_v1_00     0x0002f1b1    0xa2  Code  Lc  rom.o [11]
__rtl_swrite_v1_00      0x0002eb3d    0x82  Code  Gb  rom.o [11]
__rtl_swsetup_r         0x0002efb9   0x1f8  Code  Lc  rom.o [11]
__rtl_two_way_long_needle_v1_00
                        0x0002919d   0x22e  Code  Lc  rom.o [11]
__rtl_uitod_v1_00       0x00029c55    0xd6  Code  Gb  rom.o [11]
__rtl_uitof_v1_00       0x00029e89    0xda  Code  Gb  rom.o [11]
__rtl_ultoa_v1_00       0x00029855    0x6e  Code  Gb  rom.o [11]
__rtl_valloc_r_v1_00    0x0002e421     0xa  Code  Gb  rom.o [11]
__rtl_vfprintf_r_v1_00  0x0002f661  0x15b4  Code  Gb  rom.o [11]
__rtl_write_v1_00       0x00029711    0x14  Code  Gb  rom.o [11]
__stderr_name           0x100163a8     0x8  Data  Gb  ram_libgloss_retarget.o [7]
__stdin_name            0x10016398     0x8  Data  Gb  ram_libgloss_retarget.o [7]
__stdout_name           0x100163a0     0x8  Data  Gb  ram_libgloss_retarget.o [7]
__vPortFree             0x10016473    0x38  Code  Gb  heap_5.o [2]
__vectors_table         0x00000000           --   Gb  rom.o [11]
__write                 0x1004d721    0x26  Code  Gb  low_level_io.o [2]
_addba_timer_hdl        0x1002c92b     0x4  Code  Gb  rtw_sta_mgt.o [8]
_clr_fwstate_           0x10020835    0x12  Code  Lc  rtw_mlme.o [8]
_clr_fwstate_           0x10036085    0x12  Code  Lc  rtw_ioctl_set.o [8]
_dynamic_check_timer_handlder
                        0x10020881    0x3e  Code  Gb  rtw_mlme.o [8]
_freertos_ATOMIC_ADD    0x10023a2b     0xc  Code  Lc  freertos_service.o [2]
_freertos_ATOMIC_ADD_RETURN
                        0x10023a53     0xc  Code  Lc  freertos_service.o [2]
_freertos_ATOMIC_DEC    0x10023a4f     0x4  Code  Lc  freertos_service.o [2]
_freertos_ATOMIC_DEC_RETURN
                        0x10023a7f     0x4  Code  Lc  freertos_service.o [2]
_freertos_ATOMIC_INC    0x10023a4b     0x4  Code  Lc  freertos_service.o [2]
_freertos_ATOMIC_INC_RETURN
                        0x10023a7b     0x4  Code  Lc  freertos_service.o [2]
_freertos_ATOMIC_READ   0x10023a27     0x4  Code  Lc  freertos_service.o [2]
_freertos_ATOMIC_SET    0x10023a23     0x4  Code  Lc  freertos_service.o [2]
_freertos_ATOMIC_SUB    0x10023a37     0xa  Code  Lc  freertos_service.o [2]
_freertos_ATOMIC_SUB_RETURN
                        0x10023a67     0xa  Code  Lc  freertos_service.o [2]
_freertos_GetFreeHeapSize
                        0x10023b5d     0x4  Code  Lc  freertos_service.o [2]
_freertos_acquire_wakelock
                        0x10023c79     0x6  Code  Gb  freertos_service.o [2]
_freertos_arc4random    0x10023af3    0x24  Code  Lc  freertos_service.o [2]
_freertos_cancel_timer_ex
                        0x10023a15     0xa  Code  Lc  freertos_service.o [2]
_freertos_create_task   0x10023b61    0x80  Code  Lc  freertos_service.o [2]
_freertos_deinit_xqueue
                        0x100239c3    0x1a  Code  Lc  freertos_service.o [2]
_freertos_del_timer     0x10023a1f     0x4  Code  Lc  freertos_service.o [2]
_freertos_delete_task   0x10023be1    0x4e  Code  Lc  freertos_service.o [2]
_freertos_down_sema     0x10023875    0x24  Code  Lc  freertos_service.o [2]
_freertos_enter_critical
                        0x100238fd     0x4  Code  Lc  freertos_service.o [2]
_freertos_enter_critical_mutex
                        0x10023905    0x2c  Code  Lc  freertos_service.o [2]
_freertos_exit_critical
                        0x10023901     0x4  Code  Lc  freertos_service.o [2]
_freertos_exit_critical_mutex
                        0x1002393f     0x2  Code  Lc  freertos_service.o [2]
_freertos_free_sema     0x10023851     0x4  Code  Lc  freertos_service.o [2]
_freertos_get_current_time
                        0x100239dd     0x4  Code  Lc  freertos_service.o [2]
_freertos_get_random_bytes
                        0x10023b29    0x34  Code  Lc  freertos_service.o [2]
_freertos_init_sema     0x10023841    0x10  Code  Lc  freertos_service.o [2]
_freertos_init_timer    0x10023a09     0x8  Code  Lc  freertos_service.o [2]
_freertos_init_xqueue   0x10023951    0x1c  Code  Lc  freertos_service.o [2]
_freertos_malloc        0x10023809     0x4  Code  Gb  freertos_service.o [2]
_freertos_mdelay_os     0x100239fd     0x4  Code  Lc  freertos_service.o [2]
_freertos_memcmp        0x1002382d    0x10  Code  Lc  freertos_service.o [2]
_freertos_memcpy        0x10023829     0x4  Code  Lc  freertos_service.o [2]
_freertos_memset        0x1002383d     0x4  Code  Lc  freertos_service.o [2]
_freertos_mfree         0x10023825     0x4  Code  Gb  freertos_service.o [2]
_freertos_modular64     0x10023a83    0x70  Code  Lc  freertos_service.o [2]
_freertos_ms_to_systime
                        0x100239ed     0x2  Code  Lc  freertos_service.o [2]
_freertos_msleep_os     0x100239f7     0x4  Code  Lc  freertos_service.o [2]
_freertos_mutex_free    0x100238a7     0x2  Code  Lc  freertos_service.o [2]
_freertos_mutex_get     0x100238b9    0x36  Code  Lc  freertos_service.o [2]
_freertos_mutex_init    0x10023899     0xe  Code  Lc  freertos_service.o [2]
_freertos_mutex_put     0x100238ef     0x2  Code  Lc  freertos_service.o [2]
_freertos_pop_from_xqueue
                        0x10023995    0x28  Code  Lc  freertos_service.o [2]
_freertos_push_to_xqueue
                        0x1002396d    0x28  Code  Lc  freertos_service.o [2]
_freertos_release_wakelock
                        0x10023c7f     0x6  Code  Gb  freertos_service.o [2]
_freertos_sec_to_systime
                        0x100239ef     0x8  Code  Lc  freertos_service.o [2]
_freertos_set_timer     0x10023a11     0x4  Code  Lc  freertos_service.o [2]
_freertos_spinlock      0x10023945     0x2  Code  Lc  freertos_service.o [2]
_freertos_spinlock_free
                        0x10023943     0x2  Code  Lc  freertos_service.o [2]
_freertos_spinlock_init
                        0x10023941     0x2  Code  Lc  freertos_service.o [2]
_freertos_spinlock_irqsave
                        0x10023949     0x4  Code  Lc  freertos_service.o [2]
_freertos_spinunlock    0x10023947     0x2  Code  Lc  freertos_service.o [2]
_freertos_spinunlock_irqsave
                        0x1002394d     0x4  Code  Lc  freertos_service.o [2]
_freertos_systime_to_ms
                        0x100239e1     0x2  Code  Lc  freertos_service.o [2]
_freertos_systime_to_sec
                        0x100239e3     0xa  Code  Lc  freertos_service.o [2]
_freertos_thread_enter  0x10023c33     0x2  Code  Lc  freertos_service.o [2]
_freertos_thread_exit   0x10023c35     0x6  Code  Lc  freertos_service.o [2]
_freertos_timerChangePeriod
                        0x10023c69    0x10  Code  Gb  freertos_service.o [2]
_freertos_timerCreate   0x10023c3b     0xe  Code  Gb  freertos_service.o [2]
_freertos_timerDelete   0x10023c49     0xc  Code  Gb  freertos_service.o [2]
_freertos_timerIsTimerActive
                        0x10023c55     0x4  Code  Gb  freertos_service.o [2]
_freertos_timerStop     0x10023c59     0xa  Code  Gb  freertos_service.o [2]
_freertos_udelay_os     0x10023a01     0x4  Code  Lc  freertos_service.o [2]
_freertos_up_sema       0x10023855     0x2  Code  Lc  freertos_service.o [2]
_freertos_up_sema_from_isr
                        0x10023857    0x1e  Code  Lc  freertos_service.o [2]
_freertos_usleep_os     0x100239fb     0x2  Code  Lc  freertos_service.o [2]
_freertos_wakeup_task   0x10023c2f     0x4  Code  Gb  freertos_service.o [2]
_freertos_yield_os      0x10023a05     0x4  Code  Lc  freertos_service.o [2]
_freertos_zmalloc       0x1002380d    0x18  Code  Gb  freertos_service.o [2]
_htons                  0x10016593     0xa  Code  Gb  osdep_service.o [2]
_init_txservq           0x1002cd03    0x16  Code  Lc  rtw_xmit.o [8]
_link_timer_hdl         0x1003287f     0x4  Code  Gb  rtw_mlme_ext.o [8]
_linked_info_dump       0x10031bdf    0x68  Code  Gb  rtw_mlme_ext.o [8]
_linked_rx_signal_strehgth_display
                        0x10031c51    0x32  Code  Gb  rtw_mlme_ext.o [8]
_memcmp                 0x0000f429    0x3a  Code  Gb  rom.o [11]
_memcpy                 0x0000f465    0xaa  Code  Gb  rom.o [11]
_memset                 0x0000f511    0x74  Code  Wk  rom.o [11]
_mgt_dispatcher         0x1002e6a9    0x40  Code  Lc  rtw_mlme_ext.o [8]
_netdev_if2_open        0x10024071    0xb4  Code  Gb  freertos_intfs.o [8]
_netdev_open            0x100243b5   0x106  Code  Gb  freertos_intfs.o [8]
_pHAL_Gpio_Adapter      0x10000354     0x4  Data  Gb  rom.o [11]
_parse_integer          0x0000f8bd    0x58  Code  Gb  rom.o [11]
_parse_integer_fixup_radix
                        0x0000f869    0x54  Code  Gb  rom.o [11]
_rtl_impure_ptr {Abs}   0x10001c60           --   Gb  command line/config [3]
_rtw_alloc_network      0x10020b41    0x44  Code  Gb  rtw_mlme.o [8]
_rtw_alloc_recvframe    0x1001f457    0x30  Code  Gb  rtw_recv.o [8]
_rtw_dequeue_cmd        0x1002770d    0x26  Code  Gb  rtw_cmd.o [8]
_rtw_enqueue_cmd        0x100276ef    0x1e  Code  Gb  rtw_cmd.o [8]
_rtw_enqueue_recvframe  0x1001f535    0x26  Code  Gb  rtw_recv.o [8]
_rtw_find_network       0x10020c37    0x3c  Code  Gb  rtw_mlme.o [8]
_rtw_free_cmd_priv      0x100276e3     0xc  Code  Gb  rtw_cmd.o [8]
_rtw_free_mlme_priv     0x10020b1b    0x26  Code  Gb  rtw_mlme.o [8]
_rtw_free_network       0x10020b99    0x76  Code  Gb  rtw_mlme.o [8]
_rtw_free_network_nolock
                        0x10020c0f    0x28  Code  Gb  rtw_mlme.o [8]
_rtw_free_network_queue
                        0x10020c73    0x32  Code  Gb  rtw_mlme.o [8]
_rtw_free_recv_priv     0x1001f423    0x34  Code  Gb  rtw_recv.o [8]
_rtw_free_sta_priv      0x1002c907    0x24  Code  Gb  rtw_sta_mgt.o [8]
_rtw_free_sta_xmit_priv_lock
                        0x1002c87b    0x26  Code  Gb  rtw_sta_mgt.o [8]
_rtw_free_xmit_priv     0x1002cf2d    0xa4  Code  Gb  rtw_xmit.o [8]
_rtw_init_evt_priv      0x100276d1    0x12  Code  Gb  rtw_cmd.o [8]
_rtw_init_mlme_priv     0x10020a19    0x98  Code  Gb  rtw_mlme.o [8]
_rtw_init_recv_priv     0x1001f375    0x7a  Code  Gb  rtw_recv.o [8]
_rtw_init_sta_priv      0x1002c7a5    0xd6  Code  Gb  rtw_sta_mgt.o [8]
_rtw_init_sta_recv_priv
                        0x1001f357    0x1e  Code  Gb  rtw_recv.o [8]
_rtw_init_sta_xmit_priv
                        0x1002cd19    0x46  Code  Gb  rtw_xmit.o [8]
_rtw_init_stainfo       0x1002c729    0x6e  Code  Gb  rtw_sta_mgt.o [8]
_rtw_init_xmit_priv     0x1002cd5f   0x178  Code  Gb  rtw_xmit.o [8]
_rtw_join_timeout_handler
                        0x1002161d    0x7c  Code  Gb  rtw_mlme.o [8]
_rtw_malloc             0x100165db    0x10  Code  Gb  osdep_service.o [2]
_rtw_mfree              0x100165fb     0xe  Code  Gb  osdep_service.o [2]
_rtw_observequeue_cmd   0x10027747    0x16  Code  Gb  rtw_cmd.o [8]
_rtw_open_pktfile       0x10035f79    0x14  Code  Gb  freertos_xmit.o [8]
_rtw_pktfile_read       0x10035f8d    0x30  Code  Gb  freertos_xmit.o [8]
_rtw_pwr_wakeup         0x1001ed99    0xc6  Code  Gb  rtw_pwrctrl.o [8]
_rtw_scan_timeout_handler
                        0x1002087d     0x4  Code  Gb  rtw_mlme.o [8]
_rtw_vmfree             0x100165bb    0x20  Code  Gb  osdep_service.o [2]
_rtw_zmalloc            0x100165eb    0x10  Code  Gb  osdep_service.o [2]
_rtw_zvmalloc           0x1001659d    0x1e  Code  Gb  osdep_service.o [2]
_sha1_pad_message       0x00015749    0x9c  Code  Gb  rom.o [11]
_sha1_process_message_block
                        0x000155b9   0x190  Code  Gb  rom.o [11]
_sscanf                 0x0000ff71    0x1e  Code  Gb  rom.o [11]
_strchr                 0x0000ffed    0x18  Code  Gb  rom.o [11]
_strcmp                 0x0000f6b1    0x20  Code  Gb  rom.o [11]
_strcpy                 0x0000f629    0x10  Code  Gb  rom.o [11]
_strlen                 0x0000f651    0x16  Code  Gb  rom.o [11]
_strncmp                0x0000f6d1    0x48  Code  Gb  rom.o [11]
_strncpy                0x0000f60d    0x1c  Code  Gb  rom.o [11]
_strnlen                0x0000f669    0x2e  Code  Gb  rom.o [11]
_strpbrk                0x0000ffc1    0x2c  Code  Gb  rom.o [11]
_strsep                 0x0000f7d5    0x3e  Code  Gb  rom.o [11]
_survey_timer_hdl       0x1003287b     0x4  Code  Gb  rtw_mlme_ext.o [8]
_vsscanf                0x0000f985   0x5ea  Code  Gb  rom.o [11]
accept_function         0x1001bdff    0x86  Code  Lc  api_msg.o [2]
ack_content             0x10053e54     0x4  Data  Lc  wifi_simple_config.o [2]
ackno                   0x10053bd8     0x4  Data  Lc  tcp_in.o [2]
acquire_wakelock        0x1001d617     0x4  Code  Gb  freertos_pmu.o [2]
add_RATid               0x1002af17   0x11a  Code  Gb  rtw_ap.o [8]
add_mem_usage           0x10016619    0x3a  Code  Gb  osdep_service.o [2]
add_msg_type            0x1001aa53    0x18  Code  Lc  dhcps.o [2]
add_offer_options       0x1001aaa3    0x64  Code  Lc  dhcps.o [2]
add_site_survey         0x10031461   0x17e  Code  Gb  rtw_mlme_ext.o [8]
addba_timer_hdl         0x10031ff3    0x1c  Code  Gb  rtw_mlme_ext.o [8]
aes1_encrypt            0x00014a8d   0x1d6  Code  Gb  rom.o [11]
aes1_mix_column         0x00014111   0x184  Code  Lc  rom.o [11]
aes1_next_key           0x0001406d    0xa2  Code  Lc  rom.o [11]
aes1_sbox_table         0x0003547c   0x100  Data  Lc  rom.o [11]
aes_80211_decrypt       0x000151ad   0x40c  Code  Gb  rom.o [11]
aes_80211_encrypt       0x00014e29   0x384  Code  Gb  rom.o [11]
aes_cbc_decrypt         0x0001a579   0x188  Code  Gb  rom.o [11]
aes_cbc_encrypt         0x0001a469   0x10e  Code  Gb  rom.o [11]
aes_cfb_decrypt         0x0001a9e5   0x2e2  Code  Gb  rom.o [11]
aes_cfb_encrypt         0x0001a701   0x2e4  Code  Gb  rom.o [11]
aes_ctr_crypt           0x0001af7d   0x30c  Code  Gb  rom.o [11]
aes_decrypt             0x000114a5  0x1124  Code  Gb  rom.o [11]
aes_decrypt_key         0x0001b3a9    0x6e  Code  Gb  rom.o [11]
aes_decrypt_key128      0x0001b351    0x1c  Code  Gb  rom.o [11]
aes_decrypt_key192      0x0001b36d    0x1c  Code  Gb  rom.o [11]
aes_decrypt_key256      0x0001b389    0x1e  Code  Gb  rom.o [11]
aes_ecb_decrypt         0x0001a431    0x36  Code  Gb  rom.o [11]
aes_ecb_encrypt         0x0001a3f9    0x36  Code  Gb  rom.o [11]
aes_encrypt             0x000103d1  0x10d2  Code  Gb  rom.o [11]
aes_encrypt_key         0x0001b2e1    0x6e  Code  Gb  rom.o [11]
aes_encrypt_key128      0x0001b289    0x1c  Code  Gb  rom.o [11]
aes_encrypt_key192      0x0001b2a5    0x1c  Code  Gb  rom.o [11]
aes_encrypt_key256      0x0001b2c1    0x1e  Code  Gb  rom.o [11]
aes_init                0x0001b419     0x4  Code  Gb  rom.o [11]
aes_mode_reset          0x0001a3ed     0xa  Code  Gb  rom.o [11]
aes_ofb_crypt           0x0001acc9   0x2b4  Code  Gb  rom.o [11]
aes_set_key             0x00010005   0x3cc  Code  Gb  rom.o [11]
aes_test_alignment_detection
                        0x0001a391    0x5a  Code  Gb  rom.o [11]
aesccmp_construct_ctr_preload
                        0x00014db5    0x72  Code  Gb  rom.o [11]
aesccmp_construct_mic_header1
                        0x00014ccd    0x52  Code  Gb  rom.o [11]
aesccmp_construct_mic_header2
                        0x00014d21    0x92  Code  Gb  rom.o [11]
aesccmp_construct_mic_iv
                        0x00014c65    0x66  Code  Gb  rom.o [11]
alloc_etherdev          0x1001901f    0x66  Code  Gb  rtk_wlan_if.o [8]
alloc_mgtxmitframe      0x1002f677    0x34  Code  Gb  rtw_mlme_ext.o [8]
alloc_skb               0x10020595    0xb0  Code  Gb  freertos_skbuff.o [8]
alloc_socket            0x10011119    0x58  Code  Lc  sockets.o [2]
allrouters              0x1005366c     0x4  Data  Lc  igmp.o [2]
allsystems              0x10053668     0x4  Data  Lc  igmp.o [2]
analogin_deinit         0x100456c3     0x8  Code  Gb  analogin_api.o [2]
analogin_init           0x100455a5    0xc0  Code  Gb  analogin_api.o [2]
analogin_read_u16       0x10045681     0xe  Code  Gb  analogin_api.o [2]
ap                      0x10051300    0x34  Data  Lc  atcmd_wifi.o [2]
ap2sta_data_frame       0x1001fa83   0x11e  Code  Gb  rtw_recv.o [8]
ap_free_sta             0x1002bcf3    0x9c  Code  Gb  rtw_ap.o [8]
ap_sta_info_defer_update
                        0x1002be53    0x1c  Code  Gb  rtw_ap.o [8]
app_scan_result_handler
                        0x1004725d    0x34  Code  Lc  atcmd_wifi.o [2]
arc4_byte               0x00012895    0x28  Code  Gb  rom.o [11]
arp_table               0x10053290    0xc8  Data  Lc  etharp.o [2]
arp_timer               0x100388e7    0x16  Code  Lc  ethernetif.o [2]
arp_timer               0x10022aa1    0x14  Code  Lc  lwip_timers.o [2]
associated_clients_update
                        0x1002ba89    0x46  Code  Gb  rtw_ap.o [8]
at_log_init             0x10046fa7     0x6  Code  Gb  log_service.o [2]
at_log_items            0x1004dc14    0x20  Data  Gb  log_service.o [2]
at_sys_init             0x10046841     0x8  Code  Gb  atcmd_sys.o [2]
at_sys_items            0x1004d948    0xc0  Data  Gb  atcmd_sys.o [2]
at_wifi_init            0x10047ddd    0x12  Code  Gb  atcmd_wifi.o [2]
at_wifi_items           0x1004da08   0x180  Data  Gb  atcmd_wifi.o [2]
autoip_arp_announce     0x1001e4f7    0x24  Code  Lc  autoip.o [2]
autoip_arp_reply        0x1001e715    0x8e  Code  Gb  autoip.o [2]
autoip_restart          0x1001e4ed     0xa  Code  Lc  autoip.o [2]
autoip_start            0x1001e51b    0x90  Code  Gb  autoip.o [2]
autoip_start_probing    0x1001e5ab    0x46  Code  Lc  autoip.o [2]
autoip_timer            0x10022add    0x10  Code  Lc  lwip_timers.o [2]
autoip_tmr              0x1001e5f1   0x10a  Code  Gb  autoip.o [2]
b64QamRate              0x1003b373    0x1c  Code  Gb  Hal8195ARateAdaptive.o [8]
bCheckStateTIMER        0x10057cd8     0x1  Data  Gb  rtl8195a_pmu_task.o [8]
backup_sc_ctx           0x10053e58     0x4  Data  Gb  wifi_simple_config.o [2]
base                    0x000366e0  0x7800  Data  Lc  rom.o [11]
bb_reg_dump             0x10034895    0x3e  Code  Gb  freertos_ioctl.o [8]
bignum_add              0x00017cfd    0x10  Code  Gb  rom.o [11]
bignum_cmp              0x00017cd1     0x4  Code  Gb  rom.o [11]
bignum_cmp_d            0x00017cd5    0x28  Code  Gb  rom.o [11]
bignum_deinit           0x00017b61    0x20  Code  Gb  rom.o [11]
bignum_exptmod          0x00017d2d    0x22  Code  Gb  rom.o [11]
bignum_get_unsigned_bin
                        0x00017b85    0x9a  Code  Gb  rom.o [11]
bignum_get_unsigned_bin_len
                        0x00017b81     0x4  Code  Gb  rom.o [11]
bignum_init             0x00017b35    0x2a  Code  Gb  rom.o [11]
bignum_mul              0x00017d1d    0x10  Code  Gb  rom.o [11]
bignum_set_unsigned_bin
                        0x00017c21    0xb0  Code  Gb  rom.o [11]
bignum_sub              0x00017d0d    0x10  Code  Gb  rom.o [11]
bigtens                 0x0003ebd0    0x28  Data  Lc  rom.o [11]
blanks                  0x0003ec04    0x10  Data  Lc  rom.o [11]
bootloader              0x10000bc8  0x36cc  Data  Gb  ram_1.r.bin [1]
bound_client_ethernet_address
                        0x1004dbf0    0x10  Data  Lc  dhcps.o [2]
bss_cap_update_on_sta_join
                        0x1002bacf   0x154  Code  Gb  rtw_ap.o [8]
bss_cap_update_on_sta_leave
                        0x1002bc23    0xc6  Code  Gb  rtw_ap.o [8]
buf                     0x100539d8    0x40  Data  Gb  rsa.o [2]
bus_read16              0x1003377d    0x20  Code  Lc  lxbus_ops.o [8]
bus_read32              0x100337ef    0x20  Code  Lc  lxbus_ops.o [8]
bus_read8               0x1003375d    0x20  Code  Lc  lxbus_ops.o [8]
bus_write16             0x10033841    0x32  Code  Lc  lxbus_ops.o [8]
bus_write32             0x100338af    0x32  Code  Lc  lxbus_ops.o [8]
bus_write8              0x1003380f    0x32  Code  Lc  lxbus_ops.o [8]
bwmode_update_check     0x10026d69    0x9a  Code  Lc  rtw_wlan_util.o [8]
bytecopy                0x10017075    0x14  Code  Lc  wifi_simple_config_parser.o [8]
c2h_handler_8195A       0x10040057     0x4  Code  Gb  rtl8195a_hal_init.o [8]
c2h_id_filter_ccx_8195A
                        0x10040053     0x4  Code  Gb  rtl8195a_hal_init.o [8]
cancel_timer_ex         0x100192cd    0x3c  Code  Gb  rtk_wlan_if.o [8]
cckrates_included       0x10026707    0x28  Code  Gb  rtw_wlan_util.o [8]
cckratesonly_included   0x1002672f    0x2a  Code  Gb  rtw_wlan_util.o [8]
check_assoc_AP          0x100273bf    0xbe  Code  Gb  rtw_wlan_util.o [8]
check_buddy_fwstate     0x10021c6d    0x20  Code  Gb  rtw_mlme.o [8]
check_buddy_mlmeinfo_state
                        0x100325f9    0x22  Code  Gb  rtw_mlme_ext.o [8]
check_fwstate           0x10019015     0xa  Code  Lc  rtk_wlan_if.o [8]
check_fwstate           0x10023d7d     0xa  Code  Lc  freertos_intfs.o [8]
check_fwstate           0x10039205     0xa  Code  Lc  rtw_psk.o [8]
check_fwstate           0x10020819     0xa  Code  Lc  rtw_mlme.o [8]
check_fwstate           0x1001e819     0xa  Code  Lc  rtw_pwrctrl.o [8]
check_fwstate           0x1002e36f     0xa  Code  Lc  rtw_mlme_ext.o [8]
check_fwstate           0x1002ac29     0xa  Code  Lc  rtw_ap.o [8]
check_fwstate           0x1003397d     0xa  Code  Lc  freertos_ioctl.o [8]
check_fwstate           0x10032a8b     0xa  Code  Lc  lxbus_ops.o [8]
check_fwstate           0x10026385     0xa  Code  Lc  rtw_intfs.o [8]
check_fwstate           0x100276b5     0xa  Code  Lc  rtw_cmd.o [8]
check_fwstate           0x1002c71f     0xa  Code  Lc  rtw_sta_mgt.o [8]
check_fwstate           0x1001f34d     0xa  Code  Lc  rtw_recv.o [8]
check_fwstate           0x100266fd     0xa  Code  Lc  rtw_wlan_util.o [8]
check_fwstate           0x10036069     0xa  Code  Lc  rtw_ioctl_set.o [8]
check_fwstate           0x1002ccf9     0xa  Code  Lc  rtw_xmit.o [8]
check_fwstate           0x1003abc1     0xa  Code  Lc  rtl8195a_dm.o [8]
check_fwstate           0x1003da09     0xa  Code  Lc  rtl8195a_rxdesc.o [8]
check_fwstate           0x1003e359     0xa  Code  Lc  rtl8195a_hal_init.o [8]
check_fwstate           0x1002c1c5     0xa  Code  Lc  freertos_recv.o [8]
check_nic_enough_desc   0x1003d49b    0x5e  Code  Lc  rtl8195a_xmit.o [8]
check_tx_desc_resource  0x1003d46b    0x28  Code  Gb  rtl8195a_xmit.o [8]
chk_sta_is_alive        0x1002adb1    0x30  Code  Gb  rtw_ap.o [8]
clear_cam_entry         0x10026bbb    0x2a  Code  Gb  rtw_wlan_util.o [8]
cli                     0x10023805     0x4  Code  Gb  freertos_service.o [2]
client_process_wsc_msg  0x1004affb    0x16  Code  Lc  wps_protocol_handler.o [9]
client_request_ip       0x1004db9c     0x4  Data  Lc  dhcps.o [2]
cloud_flash             0x10055680     0xc  Data  Gb  zc_hf_adpter.o [2]
cmd_promisc             0x1001b3d5    0x54  Code  Gb  wifi_promisc.o [2]
cmd_simple_config       0x10010b85    0x82  Code  Gb  wifi_simple_config.o [2]
cmd_update              0x100100f9    0x28  Code  Gb  update.o [2]
cmd_wps                 0x10048e0d    0xa0  Code  Gb  wifi_wps_config.o [2]
cmov                    0x0001f625    0x2c  Code  Lc  rom.o [11]
collect_bss_info        0x10030efb   0x1ea  Code  Gb  rtw_mlme_ext.o [8]
concurrent_chk_joinbss_done
                        0x100326bd   0x188  Code  Gb  rtw_mlme_ext.o [8]
concurrent_chk_start_clnt_join
                        0x1003261b    0x90  Code  Gb  rtw_mlme_ext.o [8]
config_method           0x10053e82     0x2  Data  Gb  wifi_wps_config.o [2]
console_cmd_exec        0x1004a8bd    0x52  Code  Gb  rtl_consol.o [2]
console_init            0x1004a90f    0x2e  Code  Gb  rtl_consol.o [2]
convert_ip_addr         0x00013dd1    0x32  Code  Gb  rom.o [11]
correct_TSF             0x10027623     0x8  Code  Gb  rtw_wlan_util.o [8]
cosTable                0x0003e2f0   0x40c  Data  Lc  rom.o [11]
count_rx_stats          0x1001f8bd    0x80  Code  Gb  rtw_recv.o [8]
crc16_ccitt             0x10009e45     0xa  Code  Gb  crc.o [2]
crc32_get               0x00012861    0x34  Code  Gb  rom.o [11]
crc32_table             0x00034fb0   0x400  Data  Lc  rom.o [11]
crc_cal_by_bit          0x10009e09    0x3c  Code  Gb  crc.o [2]
crypto_mod_exp          0x10049e3d    0x9a  Code  Gb  crypto_internal-modexp.o [9]
crypto_verify_32.constprop.0
                        0x0001f7e5    0x86  Code  Lc  rom.o [11]
current_header          0x10053674     0x4  Data  Gb  ip.o [2]
current_iphdr_dest      0x1005367c     0x4  Data  Gb  ip.o [2]
current_iphdr_src       0x10053678     0x4  Data  Gb  ip.o [2]
current_netif           0x10053670     0x4  Data  Gb  ip.o [2]
curve25519_donna        0x0001965d   0xd32  Code  Gb  rom.o [11]
cus_sig                 0x10006018    0x20  Data  Gb  update.o [2]
custom_pin              0x1004df54     0x4  Data  Lc  wifi_simple_config_parser.o [8]
d                       0x0003e2a0    0x28  Data  Lc  rom.o [11]
d2                      0x000366b8    0x28  Data  Lc  rom.o [11]
data_size               0x100538a4     0x4  Data  Lc  ping_test.o [2]
decide_chip_type_by_device_id
                        0x1001f2fb     0x6  Code  Gb  hal_intf.o [8]
decide_wait_for_beacon_timeout
                        0x10026b2d    0x1c  Code  Gb  rtw_wlan_util.o [8]
decryptor               0x1001f697    0xb8  Code  Gb  rtw_recv.o [8]
default_key_iv          0x10017c94     0x8  Data  Lc  wifi_simple_config_parser.o [8]
default_pin             0x10017c88     0xc  Data  Lc  wifi_simple_config_parser.o [8]
deinit_mem_monitor      0x10016617     0x2  Code  Gb  osdep_service.o [2]
deinit_test_data        0x100109ef    0x22  Code  Gb  wifi_simple_config.o [2]
deinit_timer_wrapper    0x100190c3    0x4a  Code  Gb  rtk_wlan_if.o [8]
del_timer_sync          0x10019311    0x50  Code  Gb  rtk_wlan_if.o [8]
dequeue_one_xmitframe   0x1003d53b    0x24  Code  Lc  rtl8195a_xmit.o [8]
dequeue_xmitframes_to_sleeping_queue
                        0x1002de4b    0x52  Code  Lc  rtw_xmit.o [8]
dev_alloc_name          0x100190a3     0xa  Code  Gb  rtk_wlan_if.o [8]
dev_alloc_skb           0x10020645    0x1c  Code  Gb  freertos_skbuff.o [8]
dh5_derive_shared       0x10049777    0x1a  Code  Gb  dh_group5.o [9]
dh5_free                0x10049791     0x2  Code  Gb  dh_group5.o [9]
dh5_init                0x1004975d    0x1a  Code  Gb  dh_group5.o [9]
dh_derive_shared        0x10049c65    0x56  Code  Gb  dh_groups.o [9]
dh_group5_generator     0x100086e8     0x1  Data  Lc  dh_groups.o [9]
dh_group5_prime         0x100086ec    0xc0  Data  Lc  dh_groups.o [9]
dh_groups               0x1004e470    0x14  Data  Lc  dh_groups.o [9]
dh_groups_get           0x10049bbd    0x10  Code  Gb  dh_groups.o [9]
dh_init                 0x10049bd1    0x94  Code  Gb  dh_groups.o [9]
dhcp_arp_reply          0x1001db81    0x5c  Code  Gb  dhcp.o [2]
dhcp_bind               0x1001dc87    0xae  Code  Lc  dhcp.o [2]
dhcp_check              0x1001d8d5    0x26  Code  Lc  dhcp.o [2]
dhcp_client_ethernet_address
                        0x1004dbe0    0x10  Data  Lc  dhcps.o [2]
dhcp_coarse_tmr         0x1001d96d    0x4c  Code  Gb  dhcp.o [2]
dhcp_create_msg         0x1001e385    0xf6  Code  Lc  dhcp.o [2]
dhcp_delete_msg         0x1001e4a1    0x16  Code  Lc  dhcp.o [2]
dhcp_discover           0x1001dbe3    0x56  Code  Lc  dhcp.o [2]
dhcp_fine_tmr           0x1001d9b9    0x30  Code  Gb  dhcp.o [2]
dhcp_handle_ack         0x1001da6b    0x7a  Code  Lc  dhcp.o [2]
dhcp_magic_cookie       0x1001b02c     0x4  Data  Lc  dhcps.o [2]
dhcp_message_repository
                        0x1004dbc8     0x4  Data  Lc  dhcps.o [2]
dhcp_message_total_options_lenth
                        0x1004dbcc     0x4  Data  Lc  dhcps.o [2]
dhcp_option             0x1001dffb    0x1e  Code  Lc  dhcp.o [2]
dhcp_option_byte        0x1001e019    0x10  Code  Lc  dhcp.o [2]
dhcp_option_interface_mtu_576
                        0x1001b034     0x2  Data  Lc  dhcps.o [2]
dhcp_option_lease_time_one_day
                        0x1001b030     0x4  Data  Lc  dhcps.o [2]
dhcp_option_long        0x1001e039    0x2a  Code  Lc  dhcp.o [2]
dhcp_option_short       0x1001e029    0x10  Code  Lc  dhcp.o [2]
dhcp_option_trailer     0x1001e4b7    0x34  Code  Lc  dhcp.o [2]
dhcp_parse_reply        0x1001e075   0x20a  Code  Lc  dhcp.o [2]
dhcp_rebind             0x1001ddbd    0x34  Code  Lc  dhcp.o [2]
dhcp_reboot             0x1001ddf9    0x4a  Code  Lc  dhcp.o [2]
dhcp_recorded_xid       0x1004dbd8     0x4  Data  Lc  dhcps.o [2]
dhcp_recv               0x1001e281   0x104  Code  Lc  dhcp.o [2]
dhcp_release            0x1001de71    0x8a  Code  Gb  dhcp.o [2]
dhcp_release_unicast    0x1001defb    0xa4  Code  Gb  dhcp.o [2]
dhcp_renew              0x1001dd43    0x60  Code  Gb  dhcp.o [2]
dhcp_rx_options_given   0x10052be4     0xc  Data  Gb  dhcp.o [2]
dhcp_rx_options_val     0x10052bf0    0x28  Data  Gb  dhcp.o [2]
dhcp_select             0x1001d8fb    0x72  Code  Lc  dhcp.o [2]
dhcp_server_state_machine
                        0x1004dba4     0x1  Data  Lc  dhcps.o [2]
dhcp_set_state          0x1001dfeb    0x10  Code  Lc  dhcp.o [2]
dhcp_start              0x1001dae5    0x92  Code  Gb  dhcp.o [2]
dhcp_stop               0x1001dfbf    0x2c  Code  Gb  dhcp.o [2]
dhcp_timeout            0x1001d9e9    0x82  Code  Lc  dhcp.o [2]
dhcp_timer_coarse       0x10022ab5    0x14  Code  Lc  lwip_timers.o [2]
dhcp_timer_fine         0x10022ac9    0x14  Code  Lc  lwip_timers.o [2]
dhcps_addr_pool_end     0x1004db98     0x4  Data  Lc  dhcps.o [2]
dhcps_addr_pool_set     0x1004dbc4     0x4  Data  Lc  dhcps.o [2]
dhcps_addr_pool_start   0x1004db94     0x4  Data  Lc  dhcps.o [2]
dhcps_allocated_client_address
                        0x1004db88     0x4  Data  Lc  dhcps.o [2]
dhcps_deinit            0x1001af8d    0x1e  Code  Gb  dhcps.o [2]
dhcps_handle_state_machine_change
                        0x1001ace9    0xae  Code  Gb  dhcps.o [2]
dhcps_init              0x1001aedd    0xb0  Code  Gb  dhcps.o [2]
dhcps_initialize_message
                        0x1001ab07    0xa2  Code  Lc  dhcps.o [2]
dhcps_ip_table_semaphore
                        0x1004dbd0     0x4  Data  Lc  dhcps.o [2]
dhcps_local_address     0x1004db8c     0x4  Data  Lc  dhcps.o [2]
dhcps_local_gateway     0x1004db90     0x4  Data  Lc  dhcps.o [2]
dhcps_local_mask        0x1004dbdc     0x4  Data  Lc  dhcps.o [2]
dhcps_netif             0x1004dbd4     0x4  Data  Lc  dhcps.o [2]
dhcps_network_id        0x1004dba0     0x4  Data  Lc  dhcps.o [2]
dhcps_pcb               0x1004dbb8     0x4  Data  Lc  dhcps.o [2]
dhcps_receive_udp_packet_handler
                        0x1001adaf   0x11c  Code  Lc  dhcps.o [2]
dhcps_send_broadcast_address
                        0x1004dbbc     0x4  Data  Lc  dhcps.o [2]
dhcps_send_offer        0x1001aba9   0x11c  Code  Lc  dhcps.o [2]
dhcps_subnet_broadcast  0x1004dbc0     0x4  Data  Lc  dhcps.o [2]
digits                  0x1002505c    0x28  Data  Lc  xstoul.o [4]
disconnect_hdl          0x100321a5    0x84  Code  Gb  rtw_mlme_ext.o [8]
div_s64                 0x0000ff99     0x8  Code  Gb  rom.o [11]
div_s64_rem             0x0000ffb1    0x10  Code  Gb  rom.o [11]
div_u64                 0x0000ff91     0x8  Code  Gb  rom.o [11]
div_u64_rem             0x0000ffa1    0x10  Code  Gb  rom.o [11]
dns_check_entry         0x10025dcf    0x8e  Code  Lc  dns.o [2]
dns_enqueue             0x10025fb9    0xa6  Code  Lc  dns.o [2]
dns_gethostbyname       0x1002605f    0x88  Code  Gb  dns.o [2]
dns_init                0x10025c6d    0x48  Code  Gb  dns.o [2]
dns_parse_name          0x10025ced    0x22  Code  Lc  dns.o [2]
dns_payload             0x10052c28     0x4  Data  Lc  dns.o [2]
dns_payload_buffer      0x10052c2c   0x204  Data  Lc  dns.o [2]
dns_pcb                 0x10052c24     0x4  Data  Lc  dns.o [2]
dns_recv                0x10025e6d   0x14c  Code  Lc  dns.o [2]
dns_send                0x10025d0f    0xc0  Code  Lc  dns.o [2]
dns_seqno               0x10057cd2     0x1  Data  Lc  dns.o [2]
dns_servers             0x10052c1c     0x8  Data  Lc  dns.o [2]
dns_setserver           0x10025cb5    0x1c  Code  Gb  dns.o [2]
dns_table               0x10052e30   0x460  Data  Lc  dns.o [2]
dns_timer               0x10022aff     0x8  Code  Lc  lwip_timers.o [2]
dns_tmr                 0x10025cd1    0x1c  Code  Gb  dns.o [2]
do_bind                 0x1001c1db    0x42  Code  Gb  api_msg.o [2]
do_close_internal       0x1001c065    0xda  Code  Lc  api_msg.o [2]
do_connect              0x1001c28f    0x92  Code  Gb  api_msg.o [2]
do_connected            0x1001c21d    0x72  Code  Lc  api_msg.o [2]
do_delconn              0x1001c153    0x80  Code  Gb  api_msg.o [2]
do_dns_found            0x1001c645    0x2e  Code  Lc  api_msg.o [2]
do_getaddr              0x1001c5cd    0x6a  Code  Gb  api_msg.o [2]
do_gethostbyname        0x1001c673    0x2c  Code  Gb  api_msg.o [2]
do_listen               0x1001c321    0xa4  Code  Gb  api_msg.o [2]
do_newconn              0x1001be99    0x7e  Code  Gb  api_msg.o [2]
do_ping_call            0x1004896d    0x2a  Code  Gb  ping_test.o [2]
do_recv                 0x1001c43b    0x34  Code  Gb  api_msg.o [2]
do_send                 0x1001c3c5    0x68  Code  Gb  api_msg.o [2]
do_write                0x1001c58f    0x3e  Code  Gb  api_msg.o [2]
do_writemore            0x1001c47b   0x108  Code  Lc  api_msg.o [2]
dot11_rate_table        0x000353f0     0xd  Data  Lc  rom.o [11]
drvpriv                 0x100557c0    0x14  Data  Lc  freertos_intfs.o [8]
dummy_key               0x10057cbc    0x14  Data  Lc  random.o [9]
dump_chip_info          0x1002a0fd   0x14e  Code  Gb  hal_com.o [8]
dump_mgntframe          0x1002f70b    0x18  Code  Gb  rtw_mlme_ext.o [8]
dynamic_chk_wk_hdl      0x10027f2d    0x20  Code  Gb  rtw_cmd.o [8]
eTaskConfirmSleepModeStatus
                        0x10014831    0x12  Code  Gb  tasks.o [2]
eap_get_id              0x1004b947     0x6  Code  Gb  eap_common.o [9]
eap_hdr_len_valid       0x1004b841    0x1a  Code  Gb  eap_common.o [9]
eap_hdr_validate        0x1004b85b    0x70  Code  Gb  eap_common.o [9]
eap_msg_alloc           0x1004b8cb    0x7c  Code  Gb  eap_common.o [9]
eap_peer_wsc_register   0x1004b61f    0x12  Code  Gb  eap_wsc.o [9]
eap_wsc_build_frag_ack  0x1004b95d    0x2e  Code  Gb  eap_wsc_common.o [9]
eap_wsc_build_msg       0x1004b3e1    0xba  Code  Lc  eap_wsc.o [9]
eap_wsc_deinit          0x1004b3b9    0x28  Code  Lc  eap_wsc.o [9]
eap_wsc_init            0x1004b31f    0x9a  Code  Lc  eap_wsc.o [9]
eap_wsc_process         0x1004b4f7   0x128  Code  Lc  eap_wsc.o [9]
eap_wsc_process_cont    0x1004b49b    0x28  Code  Lc  eap_wsc.o [9]
eap_wsc_process_fragment
                        0x1004b4c3    0x34  Code  Lc  eap_wsc.o [9]
efuse_GetCurrentSize    0x1003df73    0x22  Code  Gb  rtw_efuse.o [8]
efuse_GetMaxSize        0x1003df5d    0x16  Code  Gb  rtw_efuse.o [8]
efuse_OneByteRead       0x1003dd93    0xa2  Code  Gb  rtw_efuse.o [8]
efuse_OneByteWrite      0x1003de53    0xb2  Code  Gb  rtw_efuse.o [8]
efuse_ReadEFuse         0x1003dd6d    0x14  Code  Gb  rtw_efuse.o [8]
efuse_WordEnableDataRead
                        0x1003df0d    0x32  Code  Gb  rtw_efuse.o [8]
efuse_flash_map_update  0x1003e03f    0x7c  Code  Lc  rtw_efuse.o [8]
enable_rate_adaptive    0x10027365     0x2  Code  Gb  rtw_wlan_util.o [8]
end                     0x1ffff334     0x1  Data  Gb  ram_libgloss_retarget.o [7]
entropy                 0x10057cb8     0x4  Data  Lc  random.o [9]
eqNByte                 0x1002a97d    0x1a  Code  Gb  hal_com.o [8]
err_tcp                 0x1001bd2f    0x8c  Code  Lc  api_msg.o [2]
err_to_errno_table      0x10011aa0    0x40  Data  Lc  sockets.o [2]
error_flag              0x1004dd04     0x4  Data  Gb  wifi_conf.o [2]
eth_buffer              0x10053dc0     0x8  Data  Lc  wifi_promisc.o [2]
etharp_arp_input        0x10022e1f   0x17c  Code  Lc  etharp.o [2]
etharp_cached_entry     0x10057cd3     0x1  Data  Lc  etharp.o [2]
etharp_cleanup_netif    0x10022df7    0x28  Code  Gb  etharp.o [2]
etharp_find_entry       0x10022ceb    0xd2  Code  Lc  etharp.o [2]
etharp_free_entry       0x10022c7d    0x30  Code  Lc  etharp.o [2]
etharp_output           0x10022fdb    0xf4  Code  Gb  etharp.o [2]
etharp_output_to_arp_index
                        0x10022fa1    0x3a  Code  Lc  etharp.o [2]
etharp_query            0x100230dd    0xe6  Code  Gb  etharp.o [2]
etharp_raw              0x100231cd    0xb4  Code  Gb  etharp.o [2]
etharp_request          0x10023281    0x28  Code  Gb  etharp.o [2]
etharp_send_ip          0x10022dc9    0x2e  Code  Lc  etharp.o [2]
etharp_tmr              0x10022cad    0x3e  Code  Gb  etharp.o [2]
ethbroadcast            0x10023334     0x8  Data  Gb  etharp.o [2]
ethernet_input          0x100232a9    0x8c  Code  Gb  etharp.o [2]
ethernetif_init         0x100388cb    0x1c  Code  Gb  ethernetif.o [2]
ethernetif_recv         0x1003884f    0x66  Code  Gb  ethernetif.o [2]
ethzero                 0x1002333c     0x8  Data  Gb  etharp.o [2]
event_callback          0x100119a1    0xfc  Code  Lc  sockets.o [2]
event_callback_list     0x10053c70   0x150  Data  Lc  wifi_ind.o [2]
example_entry           0x10049edd     0x8  Code  Gb  example_entry.o [2]
example_wlan_fast_connect
                        0x1004a021     0xe  Code  Gb  example_wlan_fast_connect.o [2]
expire_timeout_chk      0x1002ade1   0x136  Code  Gb  rtw_ap.o [8]
ext_free                0x10053658     0x4  Data  Lc  heap_5.o [2]
ext_lower               0x10053660     0x4  Data  Lc  heap_5.o [2]
ext_upper               0x1005365c     0x4  Data  Lc  heap_5.o [2]
fATSA                   0x10045f67   0x14a  Code  Gb  atcmd_sys.o [2]
fATSC                   0x100464a1    0x2a  Code  Gb  atcmd_sys.o [2]
fATSD                   0x10045eb9    0x56  Code  Gb  atcmd_sys.o [2]
fATSE                   0x10045f0f    0x50  Code  Gb  atcmd_sys.o [2]
fATSG                   0x100460c5   0x3dc  Code  Gb  atcmd_sys.o [2]
fATSL                   0x1004661f    0xc4  Code  Gb  atcmd_sys.o [2]
fATSP                   0x100464f5   0x124  Code  Gb  atcmd_sys.o [2]
fATSR                   0x100464cb    0x2a  Code  Gb  atcmd_sys.o [2]
fATSc                   0x10046759    0x96  Code  Gb  atcmd_sys.o [2]
fATSs                   0x100466eb    0x60  Code  Gb  atcmd_sys.o [2]
fATSt                   0x10046807    0x14  Code  Gb  atcmd_sys.o [2]
fATSx                   0x1004681b    0x26  Code  Gb  atcmd_sys.o [2]
fATW0                   0x10047299    0x30  Code  Gb  atcmd_wifi.o [2]
fATW1                   0x100472c9    0x24  Code  Gb  atcmd_wifi.o [2]
fATW2                   0x100472ed    0x3a  Code  Gb  atcmd_wifi.o [2]
fATW3                   0x1004732d    0x3e  Code  Gb  atcmd_wifi.o [2]
fATW4                   0x10047395    0x22  Code  Gb  atcmd_wifi.o [2]
fATW5                   0x100473c5    0x1c  Code  Gb  atcmd_wifi.o [2]
fATW6                   0x100473e1    0x56  Code  Gb  atcmd_wifi.o [2]
fATWA                   0x100474a1    0xb0  Code  Gb  atcmd_wifi.o [2]
fATWB                   0x10047831    0xac  Code  Gb  atcmd_wifi.o [2]
fATWC                   0x10047551   0x126  Code  Gb  atcmd_wifi.o [2]
fATWD                   0x10047677    0x70  Code  Gb  atcmd_wifi.o [2]
fATWI                   0x10047917    0x92  Code  Gb  atcmd_wifi.o [2]
fATWM                   0x100479a9    0x34  Code  Gb  atcmd_wifi.o [2]
fATWO                   0x10047a45    0x36  Code  Gb  atcmd_wifi.o [2]
fATWP                   0x100477ed    0x44  Code  Gb  atcmd_wifi.o [2]
fATWQ                   0x100479ef    0x2a  Code  Gb  atcmd_wifi.o [2]
fATWR                   0x100477c7    0x26  Code  Gb  atcmd_wifi.o [2]
fATWS                   0x100476ef    0xc8  Code  Gb  atcmd_wifi.o [2]
fATWW                   0x10047a19    0x2a  Code  Gb  atcmd_wifi.o [2]
fATWZ                   0x10047beb    0x78  Code  Gb  atcmd_wifi.o [2]
fATWw                   0x10047a43     0x2  Code  Gb  atcmd_wifi.o [2]
fATWx                   0x10047a7b   0x156  Code  Gb  atcmd_wifi.o [2]
fATXP                   0x10047c63    0xf0  Code  Gb  atcmd_wifi.o [2]
fAT_exit                0x10046f93    0x14  Code  Gb  log_service.o [2]
fast_s_mp_mul_digs.isra.12
                        0x00017161   0x19c  Code  Lc  rom.o [11]
fe_add                  0x0001d919    0x70  Code  Lc  rom.o [11]
fe_cmov                 0x0001d989    0xd0  Code  Lc  rom.o [11]
fe_invert               0x0001e969   0x148  Code  Lc  rom.o [11]
fe_mul                  0x0001da59   0x864  Code  Lc  rom.o [11]
fe_neg                  0x0001e2bd    0x52  Code  Lc  rom.o [11]
fe_sq                   0x0001e311   0x658  Code  Lc  rom.o [11]
fe_sub                  0x0001eab1    0x7c  Code  Lc  rom.o [11]
fe_tobytes              0x0001eb2d   0x1c4  Code  Lc  rom.o [11]
fill_one_option_content
                        0x1001aa6b    0x30  Code  Lc  dhcps.o [2]
filter_add_enable       0x10010b2f    0x44  Code  Gb  wifi_simple_config.o [2]
filter_packet           0x10017cf9    0x8a  Code  Lc  rtw_promisc.o [8]
first                   0x10000370     0x4  Data  Lc  rom.o [11]
fix_sa                  0x1004df64     0x4  Data  Lc  wifi_simple_config_parser.o [8]
fixed_channel_num       0x10053e48     0x4  Data  Gb  wifi_simple_config.o [2]
flags                   0x10053bb4     0x1  Data  Lc  tcp_in.o [2]
flash_erase_sector      0x1000f6b9    0x10  Code  Gb  flash_api.o [2]
flash_init              0x1000f679    0x40  Code  Lc  flash_api.o [2]
flash_map_mask          0x1003e344     0xc  Data  Gb  rtw_efuse.o [8]
flash_read_word         0x1000f6d1    0x1e  Code  Gb  flash_api.o [2]
flash_stream_read       0x1000f737    0xa0  Code  Gb  flash_api.o [2]
flash_stream_write      0x1000f7df   0x128  Code  Gb  flash_api.o [2]
flash_write_word        0x1000f6f9    0x2e  Code  Gb  flash_api.o [2]
flush_all_cam_entry     0x10026be5    0x78  Code  Gb  rtw_wlan_util.o [8]
flush_signals_thread    0x100169b7     0x2  Code  Gb  osdep_service.o [2]
fmul                    0x00019635    0x26  Code  Lc  rom.o [11]
fproduct                0x00018a45   0x3b0  Code  Lc  rom.o [11]
freduce_coefficients    0x000190e5   0x146  Code  Lc  rom.o [11]
freduce_degree          0x00018df5   0x2ee  Code  Lc  rom.o [11]
free_mlme_ap_info       0x1002ac49    0x4a  Code  Gb  rtw_ap.o [8]
free_mlme_ext_priv      0x1002e681    0x28  Code  Gb  rtw_mlme_ext.o [8]
free_netdev             0x10019085    0x1e  Code  Gb  rtk_wlan_if.o [8]
freertos_pre_sleep_processing
                        0x1001d585    0x92  Code  Gb  freertos_pmu.o [2]
freertos_ready_to_sleep
                        0x1001d579     0xc  Code  Gb  freertos_pmu.o [2]
fsquare                 0x0001925d   0x3d8  Code  Lc  rom.o [11]
fsum                    0x00018a11    0x32  Code  Lc  rom.o [11]
gDbgFlag                0x1004d944     0x4  Data  Lc  atcmd_sys.o [2]
gDbgLevel               0x1004d940     0x1  Data  Lc  atcmd_sys.o [2]
gDeltaSwingTableIdx_MP_2GA_N_TxPowerTrack_QFN48_8195A
                        0x1004f444    0x20  Data  Gb  HalHWImg8195A_RF.o [8]
gDeltaSwingTableIdx_MP_2GA_N_TxPowerTrack_QFN56_8195A
                        0x1004f4c4    0x20  Data  Gb  HalHWImg8195A_RF.o [8]
gDeltaSwingTableIdx_MP_2GA_N_TxPowerTrack_TFBGA96_8195A
                        0x1004f544    0x20  Data  Gb  HalHWImg8195A_RF.o [8]
gDeltaSwingTableIdx_MP_2GA_P_TxPowerTrack_QFN48_8195A
                        0x1004f464    0x20  Data  Gb  HalHWImg8195A_RF.o [8]
gDeltaSwingTableIdx_MP_2GA_P_TxPowerTrack_QFN56_8195A
                        0x1004f4e4    0x20  Data  Gb  HalHWImg8195A_RF.o [8]
gDeltaSwingTableIdx_MP_2GA_P_TxPowerTrack_TFBGA96_8195A
                        0x1004f564    0x20  Data  Gb  HalHWImg8195A_RF.o [8]
gDeltaSwingTableIdx_MP_2GCCKA_N_TxPowerTrack_QFN48_8195A
                        0x1004f484    0x20  Data  Gb  HalHWImg8195A_RF.o [8]
gDeltaSwingTableIdx_MP_2GCCKA_N_TxPowerTrack_QFN56_8195A
                        0x1004f504    0x20  Data  Gb  HalHWImg8195A_RF.o [8]
gDeltaSwingTableIdx_MP_2GCCKA_N_TxPowerTrack_TFBGA96_8195A
                        0x1004f584    0x20  Data  Gb  HalHWImg8195A_RF.o [8]
gDeltaSwingTableIdx_MP_2GCCKA_P_TxPowerTrack_QFN48_8195A
                        0x1004f4a4    0x20  Data  Gb  HalHWImg8195A_RF.o [8]
gDeltaSwingTableIdx_MP_2GCCKA_P_TxPowerTrack_QFN56_8195A
                        0x1004f524    0x20  Data  Gb  HalHWImg8195A_RF.o [8]
gDeltaSwingTableIdx_MP_2GCCKA_P_TxPowerTrack_TFBGA96_8195A
                        0x1004f5a4    0x20  Data  Gb  HalHWImg8195A_RF.o [8]
gHAL_Gpio_Adapter       0x10057d6c   0x12c  Data  Gb  hal_gpio.o [2]
gImage2EntryFun0        0x10006000     0x4  Data  Gb  startup.o [6]
gRamPatchFun0           0x1fff0008     0x4  Data  Gb  startup.o [6]
gRamPatchFun1           0x1fff000c     0x4  Data  Gb  startup.o [6]
gRamPatchFun2           0x1fff0010     0x4  Data  Gb  startup.o [6]
gRamPatchWAKE           0x1fff0004     0x4  Data  Gb  startup.o [6]
gRamStartFun            0x1fff0000     0x4  Data  Gb  startup.o [6]
gTimerRecord            0x1000034c     0x4  Data  Gb  rom.o [11]
g_Bcfd                  0x10053ea8     0x4  Data  Gb  zc_bc.o [2]
g_ap_device_type        0x1004b2dc     0x8  Data  Lc  wps_protocol_handler.o [9]
g_bssid                 0x1004df74     0x8  Data  Gb  wifi_simple_config_parser.o [8]
g_heap_inited           0x10053bac     0x4  Data  Lc  tcm_heap.o [2]
g_ios_mac               0x1004df7c     0x8  Data  Lc  wifi_simple_config_parser.o [8]
g_pu8RemoteAddr         0x10053eac     0x4  Data  Gb  zc_bc.o [2]
g_rtl_cipherEngine      0x10050880   0x500  Data  Lc  hal_crypto.o [6]
g_sc_ctx                0x1004df70     0x4  Data  Lc  wifi_simple_config_parser.o [8]
g_sc_pin_len            0x1004df68     0x4  Data  Lc  wifi_simple_config_parser.o [8]
g_security_mode         0x1004dffc     0x1  Data  Gb  wifi_simple_config_parser.o [8]
g_ssid                  0x10053e60    0x20  Data  Gb  wifi_simple_config.o [2]
g_ssid_len              0x10053e4c     0x4  Data  Gb  wifi_simple_config.o [2]
g_sta_device_type       0x1004b2e4     0x8  Data  Lc  wps_protocol_handler.o [9]
g_struClientBuffer      0x100541b8   0x260  Data  Gb  zc_hf_adpter.o [2]
g_struClientInfo        0x10053eb8    0x28  Data  Gb  zc_client_manager.o [2]
g_struHfAdapter         0x10053ee4    0x44  Data  Gb  zc_hf_adpter.o [2]
g_struHfTimer           0x1005561c    0x50  Data  Gb  zc_hf_adpter.o [2]
g_struProtocolController
                        0x1005568c    0x88  Data  Gb  zc_protocol_controller.o [2]
g_struRecvBuffer        0x10053f58   0x260  Data  Gb  zc_hf_adpter.o [2]
g_struRecvQueue         0x10054418    0x28  Data  Gb  zc_hf_adpter.o [2]
g_struRegisterInfo      0x1004de44    0x8c  Data  Gb  zc_configuration.o [2]
g_struSendBuffer        0x10054440   0x720  Data  Gb  zc_hf_adpter.o [2]
g_struSendQueue         0x10054b60    0x28  Data  Gb  zc_hf_adpter.o [2]
g_struTimer             0x10055714    0x50  Data  Gb  zc_timer.o [2]
g_struTimer1            0x10053f2c    0x2c  Data  Gb  zc_hf_adpter.o [2]
g_struTimermutex        0x10053f28     0x4  Data  Gb  zc_hf_adpter.o [2]
g_struUartBuffer        0x10054de0   0x3f0  Data  Gb  zc_hf_adpter.o [2]
g_struZcConfigDb        0x1004dd10   0x134  Data  Gb  zc_configuration.o [2]
g_tcm_heap              0x10053ba8     0x4  Data  Lc  tcm_heap.o [2]
g_u16TcpMss             0x10053ee0     0x2  Data  Gb  zc_hf_adpter.o [2]
g_u16TiTimerCount       0x1005566c    0x14  Data  Gb  zc_hf_adpter.o [2]
g_u32BcSleepCount       0x1004df14     0x4  Data  Gb  zc_hf_adpter.o [2]
g_u32CloudStatus        0x100510c0     0x4  Data  Gb  ac_hal.o [2]
g_u32DisconnFlag        0x1004dd0c     0x4  Data  Gb  wifi_conf.o [2]
g_u32GloablIp           0x10053eb0     0x4  Data  Gb  zc_bc.o [2]
g_u32WifiPowerStatus    0x100510c4     0x4  Data  Gb  ac_hal.o [2]
g_u64Domain             0x1004d938     0x8  Data  Gb  ac_hal.o [2]
g_u8BcSendBuffer        0x100555b8    0x64  Data  Gb  zc_hf_adpter.o [2]
g_u8ClientSendLen       0x10057cd7     0x1  Data  Gb  zc_hf_adpter.o [2]
g_u8DefaultCloudKey     0x1004ded0    0x24  Data  Gb  zc_configuration.o [2]
g_u8DefaultTokenKey     0x1004def4    0x10  Data  Gb  zc_configuration.o [2]
g_u8DevMsgBuildBuffer   0x100510c8   0x200  Data  Gb  ac_hal.o [2]
g_u8EqVersion           0x1004d8c0     0x4  Data  Gb  ac_hal.o [2]
g_u8ModuleKey           0x1004d8c4    0x70  Data  Gb  ac_hal.o [2]
g_u8MsgBuildBuffer      0x10054b88   0x258  Data  Gb  zc_hf_adpter.o [2]
g_u8recvbuffer          0x100551d0   0x3e8  Data  Gb  zc_hf_adpter.o [2]
g_wps_context           0x10055b1c    0x10  Data  Gb  wps_protocol_handler.o [9]
ge_add                  0x0001ecf1    0x98  Code  Lc  rom.o [11]
ge_madd                 0x0001ee3d    0x8c  Code  Lc  rom.o [11]
ge_p1p1_to_p2           0x0001eec9    0x32  Code  Lc  rom.o [11]
ge_p1p1_to_p3           0x0001eefd    0x42  Code  Lc  rom.o [11]
ge_p2_dbl               0x0001ef41   0x66e  Code  Lc  rom.o [11]
ge_p3_to_cached         0x0001f5b1    0x74  Code  Lc  rom.o [11]
ge_select               0x0001f651   0x194  Code  Lc  rom.o [11]
getSwingIndex           0x10044beb    0x4c  Code  Gb  phydm_PowerTracking.o [8]
get_beacon_interval     0x10026abf    0x18  Code  Gb  rtw_wlan_util.o [8]
get_buf_from_poll       0x100204f9    0x22  Code  Lc  freertos_skbuff.o [8]
get_connection_info_from_profile
                        0x10010661   0x1a6  Code  Lc  wifi_simple_config.o [2]
get_da                  0x1002e355    0x1a  Code  Lc  rtw_mlme_ext.o [8]
get_hdr_bssid           0x10017ccd    0x2c  Code  Lc  rtw_promisc.o [8]
get_highest_rate_idx    0x10027345    0x18  Code  Gb  rtw_wlan_util.o [8]
get_my_bssid            0x10026abb     0x4  Code  Gb  rtw_wlan_util.o [8]
get_priv_size           0x100353d3    0x12  Code  Lc  freertos_ioctl.o [8]
get_rate_set            0x10026919    0x28  Code  Gb  rtw_wlan_util.o [8]
get_socket              0x100110eb    0x16  Code  Lc  sockets.o [2]
get_txdesc_buf_addr     0x10032e93    0x38  Code  Gb  lxbus_ops.o [8]
get_wakelock_status     0x1001d627     0x6  Code  Gb  freertos_pmu.o [2]
gmk_expansion_const     0x00035450    0x14  Data  Lc  rom.o [11]
gpio_dir                0x10026219    0x26  Code  Gb  gpio_api.o [2]
gpio_init               0x100261cd    0x36  Code  Gb  gpio_api.o [2]
gpio_mode               0x10026203    0x16  Code  Gb  gpio_api.o [2]
gpio_read               0x10026277    0x22  Code  Gb  gpio_api.o [2]
gpio_set                0x100261a7    0x26  Code  Gb  gpio_api.o [2]
gpio_set_hal_pin_mode   0x10026181    0x26  Code  Gb  gpio_api.o [2]
gpio_write              0x1002623f    0x20  Code  Gb  gpio_api.o [2]
gtimer_init             0x100140eb    0x40  Code  Gb  timer_api.o [2]
gtimer_reload           0x10014135     0x6  Code  Gb  timer_api.o [2]
gtimer_start            0x1001413b    0x14  Code  Gb  timer_api.o [2]
gtimer_start_periodical
                        0x1001414f    0x16  Code  Gb  timer_api.o [2]
gtimer_stop             0x10014173     0x6  Code  Gb  timer_api.o [2]
gtimer_timeout_handler  0x100140cd    0x1e  Code  Lc  timer_api.o [2]
hal_EfuseGetCurrentSize_WiFi
                        0x1003e5a1    0xd0  Code  Lc  rtl8195a_hal_init.o [8]
hal_EfusePgPacketWrite2ByteHeader
                        0x1003e8bf    0xb6  Code  Lc  rtl8195a_hal_init.o [8]
hal_EfusePgPacketWriteHeader
                        0x1003e981    0x70  Code  Lc  rtl8195a_hal_init.o [8]
hal_EfuseSwitchToBank   0x1003e383    0x3a  Code  Lc  rtl8195a_hal_init.o [8]
hal_ReadEFuse_WiFi      0x1003e42d   0x14e  Code  Lc  rtl8195a_hal_init.o [8]
hal_com_get_channel_plan
                        0x1002a255    0x22  Code  Gb  hal_com.o [8]
hal_init_macaddr        0x1002a703    0x26  Code  Gb  hal_com.o [8]
hal_notch_filter_8195a  0x1003ed4f     0x2  Code  Gb  rtl8195a_hal_init.o [8]
hash_index              0x10046cd1    0x1c  Code  Gb  log_service.o [2]
hci_dvobj_deinit        0x100387db     0xc  Code  Gb  hci_intfs.o [8]
hci_dvobj_free_irq      0x100387f3     0xc  Code  Gb  hci_intfs.o [8]
hci_dvobj_init          0x100387cd     0xe  Code  Gb  hci_intfs.o [8]
hci_dvobj_request_irq   0x100387e7     0xc  Code  Gb  hci_intfs.o [8]
hci_lxbus_dvobj_deinit  0x1004d5e3    0x32  Code  Gb  lxbus_hci_intf.o [8]
hci_lxbus_dvobj_init    0x1004d5b5    0x2e  Code  Gb  lxbus_hci_intf.o [8]
hci_lxbus_dvobj_request_irq
                        0x1004d615    0x2c  Code  Gb  lxbus_hci_intf.o [8]
hci_lxbus_free_irq      0x1004d641    0x30  Code  Gb  lxbus_hci_intf.o [8]
hci_lxbus_intf_stop     0x1004d57d    0x38  Code  Gb  lxbus_hci_intf.o [8]
hci_ops                 0x10007564    0x10  Data  Gb  lxbus_hci_intf.o [8]
hw_var_port_switch      0x1002a729   0x238  Code  Gb  hal_com.o [8]
hw_var_set_correct_tsf  0x1003fcb1   0x130  Code  Lc  rtl8195a_hal_init.o [8]
hw_var_set_mlme_join    0x1003ff45   0x106  Code  Lc  rtl8195a_hal_init.o [8]
hw_var_set_mlme_sitesurvey
                        0x1003fe25    0xec  Code  Lc  rtl8195a_hal_init.o [8]
hw_var_set_opmode       0x1003fa6d   0x1e4  Code  Lc  rtl8195a_hal_init.o [8]
icmp_dest_unreach       0x10037a7d     0x6  Code  Gb  icmp.o [2]
icmp_input              0x10037965   0x108  Code  Gb  icmp.o [2]
icmp_send_response      0x10037a87    0x66  Code  Lc  icmp.o [2]
icmp_time_exceeded      0x10037a83     0x4  Code  Gb  icmp.o [2]
igmp_delaying_member    0x10018f25    0x22  Code  Lc  igmp.o [2]
igmp_group_list         0x10053664     0x4  Data  Lc  igmp.o [2]
igmp_init               0x10018c39    0x12  Code  Gb  igmp.o [2]
igmp_input              0x10018cf1    0xc4  Code  Gb  igmp.o [2]
igmp_joingroup          0x10018db5    0x86  Code  Gb  igmp.o [2]
igmp_leavegroup         0x10018e3b    0xa0  Code  Gb  igmp.o [2]
igmp_lookfor_group      0x10018c9f    0x1e  Code  Gb  igmp.o [2]
igmp_lookup_group       0x10018cbd    0x34  Code  Lc  igmp.o [2]
igmp_report_groups      0x10018c7d    0x22  Code  Gb  igmp.o [2]
igmp_send               0x10018f47    0x90  Code  Lc  igmp.o [2]
igmp_start              0x10018c4b    0x32  Code  Gb  igmp.o [2]
igmp_start_timer        0x10018f07    0x1e  Code  Lc  igmp.o [2]
igmp_timer              0x10022aed     0xe  Code  Lc  lwip_timers.o [2]
igmp_tmr                0x10018edb    0x2c  Code  Gb  igmp.o [2]
impure_data             0x1fff10a0   0x428  Data  Lc  rom.o [11]
indicate_wx_custom_event
                        0x10033991    0x4e  Code  Gb  freertos_ioctl.o [8]
indicate_wx_scan_complete_event
                        0x100339f9    0x20  Code  Gb  freertos_ioctl.o [8]
indicate_wx_scan_result_present
                        0x100339df    0x1a  Code  Gb  freertos_ioctl.o [8]
inet_chksum             0x1002379d     0xc  Code  Gb  inet_chksum.o [2]
inet_chksum_pbuf        0x100237a9    0x3a  Code  Gb  inet_chksum.o [2]
inet_chksum_pseudo      0x10023723    0x68  Code  Gb  inet_chksum.o [2]
infinite_loop           0x1005389c     0x4  Data  Lc  ping_test.o [2]
init_addba_retry_timer  0x1002c92f    0x1c  Code  Gb  rtw_sta_mgt.o [8]
init_channel_set        0x1002e489    0xb2  Code  Gb  rtw_mlme_ext.o [8]
init_event_callback_list
                        0x1001a9cd     0xc  Code  Gb  wifi_ind.o [2]
init_hw_mlme_ext        0x1002e39d    0x14  Code  Gb  rtw_mlme_ext.o [8]
init_mem_monitor        0x10016609     0xe  Code  Gb  osdep_service.o [2]
init_mlme_ap_info       0x1002ac33    0x16  Code  Gb  rtw_ap.o [8]
init_mlme_ext_priv      0x1002e64d    0x34  Code  Gb  rtw_mlme_ext.o [8]
init_mlme_ext_priv_value
                        0x1002e3b1    0xb6  Code  Lc  rtw_mlme_ext.o [8]
init_mlme_ext_timer     0x10032883    0x4c  Code  Gb  rtw_mlme_ext.o [8]
init_rom_libgloss_ram_map
                        0x10016345    0x24  Code  Gb  ram_libgloss_retarget.o [7]
init_rom_wlan_ram_map   0x10042b51    0x18  Code  Gb  wlan_ram_map.o [8]
init_simple_config_lib_config
                        0x10010937    0x2e  Code  Gb  wifi_simple_config.o [2]
init_skb_data_pool      0x10020553    0x2a  Code  Gb  freertos_skbuff.o [8]
init_skb_pool           0x1002052d    0x26  Code  Gb  freertos_skbuff.o [8]
init_test_data          0x10010965    0x8a  Code  Gb  wifi_simple_config.o [2]
init_thread             0x1004a9cd    0x30  Code  Gb  wlan_network.o [2]
init_timer              0x10019163    0x92  Code  Gb  rtk_wlan_if.o [8]
init_timer_wrapper      0x100190ad    0x16  Code  Gb  rtk_wlan_if.o [8]
init_wifi_struct        0x100470a5    0x52  Code  Lc  atcmd_wifi.o [2]
init_wpa_sta_info       0x1003993d    0xf6  Code  Gb  rtw_psk.o [8]
input_rotate            0x10057cb0     0x4  Data  Lc  random.o [9]
inseg                   0x10053bb8    0x14  Data  Lc  tcp_in.o [2]
invalidate_cam_all      0x10026b49     0x8  Code  Gb  rtw_wlan_util.o [8]
ip4_addr_isbroadcast    0x10013d09    0x34  Code  Gb  ip_addr.o [2]
ip_addr_any             0x100074a8     0x4  Data  Gb  ip_addr.o [2]
ip_addr_broadcast       0x100074ac     0x4  Data  Gb  ip_addr.o [2]
ip_frag                 0x10036953   0x15c  Code  Gb  ip_frag.o [2]
ip_frag_free_pbuf_custom_ref
                        0x10036937     0x8  Code  Lc  ip_frag.o [2]
ip_id                   0x10057cd0     0x2  Data  Lc  ip.o [2]
ip_input                0x10023379   0x192  Code  Gb  ip.o [2]
ip_output               0x1002366d    0x30  Code  Gb  ip.o [2]
ip_output_if            0x1002350b    0x1e  Code  Gb  ip.o [2]
ip_output_if_opt        0x10023529   0x132  Code  Gb  ip.o [2]
ip_reass                0x100367b7   0x176  Code  Gb  ip_frag.o [2]
ip_reass_chain_frag_into_datagram_and_validate
                        0x100366e5    0xd2  Code  Lc  ip_frag.o [2]
ip_reass_dequeue_datagram
                        0x100366c7    0x1e  Code  Lc  ip_frag.o [2]
ip_reass_free_complete_datagram
                        0x100365f1    0x6e  Code  Lc  ip_frag.o [2]
ip_reass_pbufcount      0x10053690     0x2  Data  Lc  ip_frag.o [2]
ip_reass_remove_oldest_datagram
                        0x1003665f    0x68  Code  Lc  ip_frag.o [2]
ip_reass_timer          0x10022a91    0x10  Code  Lc  lwip_timers.o [2]
ip_reass_tmr            0x100365c5    0x2c  Code  Gb  ip_frag.o [2]
ip_route                0x10023345    0x34  Code  Gb  ip.o [2]
ip_table                0x1004dba8    0x10  Data  Lc  dhcps.o [2]
ipaddr_addr             0x10013d3d    0x14  Code  Gb  ip_addr.o [2]
ipaddr_aton             0x10013d51    0xf6  Code  Gb  ip_addr.o [2]
ipaddr_ntoa             0x10013e49     0xc  Code  Gb  ip_addr.o [2]
ipaddr_ntoa_r           0x10013e55    0x8e  Code  Gb  ip_addr.o [2]
ipfrag_free_pbuf_custom
                        0x1003693f    0x14  Code  Lc  ip_frag.o [2]
ips_enter               0x1001e823    0xaa  Code  Gb  rtw_pwrctrl.o [8]
ips_leave               0x1001e8cd   0x120  Code  Gb  rtw_pwrctrl.o [8]
is_IBSS_empty           0x10026b0d    0x20  Code  Gb  rtw_wlan_util.o [8]
is_ap_in_tkip           0x100271d3    0x72  Code  Gb  rtw_wlan_util.o [8]
is_basicrate            0x100268a5    0x2e  Code  Gb  rtw_wlan_util.o [8]
is_broadcast_ether_addr
                        0x10019d79    0x22  Code  Gb  wifi_util.o [2]
is_client_associated_to_ap
                        0x10026ad7    0x1c  Code  Gb  rtw_wlan_util.o [8]
is_client_associated_to_ibss
                        0x10026af3    0x1a  Code  Gb  rtw_wlan_util.o [8]
is_fixed_channel        0x10053e44     0x4  Data  Lc  wifi_simple_config.o [2]
is_promisc_callback_unlock
                        0x10053e40     0x4  Data  Gb  wifi_simple_config.o [2]
is_promisc_enabled      0x100184b1    0x16  Code  Gb  rtw_promisc.o [8]
is_same_network         0x10020d2f    0x70  Code  Gb  rtw_mlme.o [8]
issue_EAPOL_start       0x100328e9    0x64  Code  Gb  rtw_mlme_ext.o [8]
issue_action_BA         0x100308af   0x22a  Code  Gb  rtw_mlme_ext.o [8]
issue_action_BSSCoexistPacket
                        0x10030b07   0x1d2  Code  Lc  rtw_mlme_ext.o [8]
issue_asocrsp           0x1002ffb9   0x224  Code  Gb  rtw_mlme_ext.o [8]
issue_assocreq          0x10030229   0x2f4  Code  Gb  rtw_mlme_ext.o [8]
issue_auth              0x1002fda5   0x1cc  Code  Gb  rtw_mlme_ext.o [8]
issue_beacon            0x1002f76d   0x218  Code  Gb  rtw_mlme_ext.o [8]
issue_deauth            0x100307f1    0xb2  Code  Gb  rtw_mlme_ext.o [8]
issue_nulldata          0x1003058b    0xba  Code  Gb  rtw_mlme_ext.o [8]
issue_probereq          0x1002fc23   0x170  Code  Gb  rtw_mlme_ext.o [8]
issue_probersp          0x1002f9b5   0x264  Code  Gb  rtw_mlme_ext.o [8]
issue_qos_nulldata      0x1003069d   0x118  Code  Gb  rtw_mlme_ext.o [8]
iw_ioctl                0x10019c99    0x1c  Code  Gb  wifi_util.o [2]
iw_priv_type_size       0x10035f64     0x8  Data  Lc  freertos_ioctl.o [8]
join_cmd_hdl            0x1003204f   0x140  Code  Gb  rtw_mlme_ext.o [8]
join_user_data          0x1004dd00     0x4  Data  Lc  wifi_conf.o [2]
judge_network_type      0x10026807    0x52  Code  Gb  rtw_wlan_util.o [8]
kCurve25519BasePoint    0x00036394    0x20  Data  Lc  rom.o [11]
key_2char2num           0x00013db9    0x18  Code  Gb  rom.o [11]
key_char2num            0x00013419    0x30  Code  Lc  rom.o [11]
kfree_skb               0x10020661    0x3a  Code  Gb  freertos_skbuff.o [8]
kfree_skb_chk_key       0x1002069b     0x2  Code  Gb  freertos_skbuff.o [8]
lextra_bus_dma_Interrupt
                        0x1004d6a1    0x58  Code  Gb  lxbus_intf.o [8]
lfree                   0x1fff0008     0x4  Data  Lc  mem.o [2]
libc_has_init           0x1005576c     0x4  Data  Lc  ram_libc.o [7]
link_timer_hdl          0x10031f81    0x72  Code  Gb  rtw_mlme_ext.o [8]
linked_status_chk       0x10031c8d   0x1ee  Code  Gb  rtw_mlme_ext.o [8]
list_add                0x10046cc5     0xc  Code  Lc  log_service.o [2]
list_add_tail           0x100204c1     0xc  Code  Lc  freertos_skbuff.o [8]
loadparam               0x10023ebf    0xfe  Code  Lc  freertos_intfs.o [8]
log_action              0x10046d8f    0x40  Code  Gb  log_service.o [2]
log_add_new_command     0x10046ced    0x26  Code  Gb  log_service.o [2]
log_at_log_init         0x1004d8bc     0x4  Data  Lc  log_service.o [2]
log_at_sys_init         0x1004d8b4     0x4  Data  Lc  atcmd_sys.o [2]
log_at_wifi_init        0x1004d8b8     0x4  Data  Lc  atcmd_wifi.o [2]
log_buf                 0x10053798    0x64  Data  Gb  log_service.o [2]
log_handler             0x10046dcf    0x5c  Code  Gb  log_service.o [2]
log_hash                0x10053698   0x100  Data  Gb  log_service.o [2]
log_rx_interrupt_sema   0x100537fc     0x4  Data  Gb  log_service.o [2]
log_service             0x10046ee5    0x74  Code  Gb  log_service.o [2]
log_service_add_table   0x10046d75    0x1a  Code  Gb  log_service.o [2]
log_service_init        0x10046d13    0x62  Code  Gb  log_service.o [2]
low_level_output        0x10038805    0x4a  Code  Lc  ethernetif.o [2]
lps_ctrl_wk_hdl         0x10027f4d    0x7a  Code  Gb  rtw_cmd.o [8]
lwip_POST_SLEEP_PROCESSING
                        0x100388fd    0x14  Code  Gb  ethernetif.o [2]
lwip_accept             0x10011171    0xf4  Code  Gb  sockets.o [2]
lwip_bind               0x10011265    0x46  Code  Gb  sockets.o [2]
lwip_close              0x100112b1    0x4e  Code  Gb  sockets.o [2]
lwip_connect            0x100112ff    0x46  Code  Gb  sockets.o [2]
lwip_htonl              0x10013829    0x18  Code  Gb  def.o [2]
lwip_htons              0x1001381d     0xa  Code  Gb  def.o [2]
lwip_init               0x1002369d    0x2e  Code  Gb  init.o [2]
lwip_listen             0x10011355    0x40  Code  Gb  sockets.o [2]
lwip_ntohl              0x10013841     0x2  Code  Gb  def.o [2]
lwip_ntohs              0x10013827     0x2  Code  Gb  def.o [2]
lwip_read               0x1001153d    0x10  Code  Gb  sockets.o [2]
lwip_recv               0x1001154d     0xe  Code  Gb  sockets.o [2]
lwip_recvfrom           0x10011395   0x18a  Code  Gb  sockets.o [2]
lwip_select             0x100117cf   0x1b2  Code  Gb  sockets.o [2]
lwip_selscan            0x100116e5    0xea  Code  Lc  sockets.o [2]
lwip_send               0x1001155b    0x74  Code  Gb  sockets.o [2]
lwip_sendto             0x100115d7    0xa4  Code  Gb  sockets.o [2]
lwip_setsockopt         0x10011ae1    0xea  Code  Gb  sockets.o [2]
lwip_setsockopt_internal
                        0x10011bf9   0x12c  Code  Lc  sockets.o [2]
lwip_socket             0x10011681    0x64  Code  Gb  sockets.o [2]
lwip_socket_init        0x100110e9     0x2  Code  Gb  sockets.o [2]
lwip_standard_chksum    0x100236cb    0x58  Code  Lc  inet_chksum.o [2]
lwip_tickless_used      0x10053358     0x4  Data  Gb  ethernetif.o [2]
lxbus_set_intf_ops      0x10033907    0x26  Code  Gb  lxbus_ops.o [8]
mac_reg_dump            0x10034831    0x64  Code  Gb  freertos_ioctl.o [8]
main                    0x10009b95    0x2c  Code  Gb  main.o [2]
mark_ip_in_table        0x1001a9dd    0x76  Code  Lc  dhcps.o [2]
max_skbbuf_used_num     0x10055afc     0x4  Data  Gb  freertos_skbuff.o [8]
max_skbdata_used_num    0x10055b04     0x4  Data  Gb  freertos_skbuff.o [8]
max_timer_used_num      0x100557ac     0x4  Data  Gb  rtk_wlan_if.o [8]
mbox                    0x10053bec     0x4  Data  Lc  tcpip.o [2]
mcast_udp_buffer        0x10017c44    0x44  Data  Lc  wifi_simple_config_parser.o [8]
mcast_udp_decode_profile
                        0x10017459    0x2a  Code  Lc  wifi_simple_config_parser.o [8]
mcast_udp_generate_key  0x100171b3    0xee  Code  Lc  wifi_simple_config_parser.o [8]
mcast_udp_get_cipher_info
                        0x1001718d    0x26  Code  Lc  wifi_simple_config_parser.o [8]
mcast_udp_get_pattern   0x100172ad   0x138  Code  Lc  wifi_simple_config_parser.o [8]
mcast_udp_get_profile   0x100173e5    0x6e  Code  Lc  wifi_simple_config_parser.o [8]
md5_encode              0x0001292d    0x32  Code  Lc  rom.o [11]
md5_transform           0x00012961   0x860  Code  Lc  rom.o [11]
mem_free                0x1002281f    0x90  Code  Gb  mem.o [2]
mem_init                0x100227e9    0x36  Code  Gb  mem.o [2]
mem_malloc              0x1002297f    0xc4  Code  Gb  mem.o [2]
mem_mutex               0x1fff1420     0x4  Data  Lc  mem.o [2]
mem_trim                0x100228af    0xd0  Code  Gb  mem.o [2]
memchr                  0x1003895d          Code  Gb  memchr.o [12]
memp_free               0x1001c731    0x22  Code  Gb  memp.o [2]
memp_init               0x1001c6c9    0x42  Code  Gb  memp.o [2]
memp_malloc             0x1001c70b    0x26  Code  Gb  memp.o [2]
memp_memory             0x1fff1464  0x3ed0  Data  Lc  memp.o [2]
memp_num                0x1001c778    0x20  Data  Lc  memp.o [2]
memp_sizes              0x1001c758    0x20  Data  Lc  memp.o [2]
memp_tab                0x1fff1424    0x40  Data  Lc  memp.o [2]
mgt_dispatcher          0x1002e6f1    0x8a  Code  Gb  rtw_mlme_ext.o [8]
min_free_heap_size      0x10053894     0x4  Data  Gb  osdep_service.o [2]
mlme_evt_hdl            0x100324f7    0x50  Code  Gb  rtw_mlme_ext.o [8]
mlme_sta_tbl            0x1004e004    0xa8  Data  Gb  rtw_mlme_ext.o [8]
mlmeext_joinbss_event_callback
                        0x10031a41   0x10e  Code  Gb  rtw_mlme_ext.o [8]
mlmeext_sta_del_event_callback
                        0x10031b57    0x4c  Code  Gb  rtw_mlme_ext.o [8]
mod_timer               0x100191f5    0xbc  Code  Gb  rtk_wlan_if.o [8]
mp_2expt                0x00016a25    0x60  Code  Lc  rom.o [11]
mp_add                  0x00016ee5    0x66  Code  Lc  rom.o [11]
mp_clear                0x0001649d    0x3c  Code  Lc  rom.o [11]
mp_cmp                  0x00016605    0x3a  Code  Lc  rom.o [11]
mp_cmp_mag.isra.1       0x000165a1    0x62  Code  Lc  rom.o [11]
mp_commnad_handler      0x10046e81    0x4a  Code  Gb  log_service.o [2]
mp_copy                 0x00016825    0x7a  Code  Lc  rom.o [11]
mp_div.part.11          0x00016fb5   0x1aa  Code  Lc  rom.o [11]
mp_div_2d               0x00016b65   0x166  Code  Lc  rom.o [11]
mp_exch                 0x0001652d    0x24  Code  Lc  rom.o [11]
mp_grow.isra.7          0x000167d1    0x54  Code  Lc  rom.o [11]
mp_init                 0x00016465    0x38  Code  Lc  rom.o [11]
mp_init_size            0x00016551    0x50  Code  Lc  rom.o [11]
mp_lshd                 0x000168a1    0x6c  Code  Lc  rom.o [11]
mp_mod_2d               0x00016a85    0xe0  Code  Lc  rom.o [11]
mp_mul                  0x00017429    0x26  Code  Lc  rom.o [11]
mp_mul_2d               0x00016ccd   0x122  Code  Lc  rom.o [11]
mp_reduce               0x00017509   0x22c  Code  Lc  rom.o [11]
mp_reduce_2k_l          0x00017451    0xb8  Code  Lc  rom.o [11]
mp_rshd                 0x00016641    0x6a  Code  Lc  rom.o [11]
mp_sub                  0x00016f4d    0x68  Code  Lc  rom.o [11]
mp_unsigned_bin_size    0x000164d9    0x52  Code  Lc  rom.o [11]
mpi_add_abs             0x100150b3    0x98  Code  Gb  bignum.o [2]
mpi_add_mpi             0x100151fd    0x2e  Code  Gb  bignum.o [2]
mpi_cmp_abs             0x10014fcb    0x3e  Code  Gb  bignum.o [2]
mpi_cmp_int             0x1001508d    0x26  Code  Gb  bignum.o [2]
mpi_cmp_mpi             0x10015009    0x5c  Code  Gb  bignum.o [2]
mpi_copy                0x10014d6f    0x46  Code  Gb  bignum.o [2]
mpi_div_mpi             0x10015ad7   0x36a  Code  Gb  bignum.o [2]
mpi_exp_mod             0x10015f73   0x2d0  Code  Gb  bignum.o [2]
mpi_free                0x10014d31    0x16  Code  Gb  bignum.o [2]
mpi_grow                0x10014d47    0x28  Code  Gb  bignum.o [2]
mpi_init                0x10014d1d    0x14  Code  Gb  bignum.o [2]
mpi_lset                0x10014dc1    0x2e  Code  Gb  bignum.o [2]
mpi_mod_mpi             0x10015e57    0x50  Code  Gb  bignum.o [2]
mpi_montmul             0x10015ea7    0xb0  Code  Lc  bignum.o [2]
mpi_montred             0x10015f57    0x1c  Code  Lc  bignum.o [2]
mpi_msb                 0x10014def    0x28  Code  Gb  bignum.o [2]
mpi_mul_hlp             0x1001527d   0x754  Code  Lc  bignum.o [2]
mpi_mul_int             0x10015ac1    0x16  Code  Gb  bignum.o [2]
mpi_mul_mpi             0x100159f7    0xc2  Code  Gb  bignum.o [2]
mpi_read_binary         0x10014e23    0x68  Code  Gb  bignum.o [2]
mpi_shift_l             0x10014ed9    0x8c  Code  Gb  bignum.o [2]
mpi_shift_r             0x10014f65    0x66  Code  Gb  bignum.o [2]
mpi_size                0x10014e17     0xc  Code  Gb  bignum.o [2]
mpi_sub_abs             0x10015199    0x64  Code  Gb  bignum.o [2]
mpi_sub_hlp             0x10015157    0x42  Code  Lc  bignum.o [2]
mpi_sub_mpi             0x10015231    0x30  Code  Gb  bignum.o [2]
mpi_write_binary        0x10014e8b    0x4e  Code  Gb  bignum.o [2]
ndigs                   0x10025084    0x28  Data  Lc  xstoul.o [4]
netbuf_delete           0x100189cb    0x1e  Code  Gb  netbuf.o [2]
netbuf_free             0x100189e9    0x16  Code  Gb  netbuf.o [2]
netbuf_ref              0x100189ff    0x3a  Code  Gb  netbuf.o [2]
netconn_accept          0x1001398b    0x6e  Code  Gb  api_lib.o [2]
netconn_alloc           0x1001bf17    0x8e  Code  Gb  api_msg.o [2]
netconn_bind            0x100138fd    0x2c  Code  Gb  api_lib.o [2]
netconn_connect         0x10013929    0x2c  Code  Gb  api_lib.o [2]
netconn_delete          0x100138a1    0x20  Code  Gb  api_lib.o [2]
netconn_drain           0x1001bfd3    0x92  Code  Lc  api_msg.o [2]
netconn_free            0x1001bfa5    0x26  Code  Gb  api_msg.o [2]
netconn_getaddr         0x100138c1    0x3c  Code  Gb  api_lib.o [2]
netconn_gethostbyname   0x10013c55    0x4c  Code  Gb  api_lib.o [2]
netconn_listen_with_backlog
                        0x10013955    0x30  Code  Gb  api_lib.o [2]
netconn_new_with_proto_and_callback
                        0x10013845    0x5c  Code  Gb  api_lib.o [2]
netconn_recv            0x10013ad7    0x86  Code  Gb  api_lib.o [2]
netconn_recv_data       0x10013a01    0xba  Code  Lc  api_lib.o [2]
netconn_recv_tcp_pbuf   0x10013ac7    0x10  Code  Gb  api_lib.o [2]
netconn_recved          0x10013b6d    0x28  Code  Gb  api_lib.o [2]
netconn_send            0x10013b95    0x2e  Code  Gb  api_lib.o [2]
netconn_write_partly    0x10013bd3    0x7a  Code  Gb  api_lib.o [2]
netdev_close            0x100244e9    0x5c  Code  Lc  freertos_intfs.o [8]
netdev_if2_close        0x10024133    0x24  Code  Lc  freertos_intfs.o [8]
netdev_if2_open         0x10024125     0xe  Code  Gb  freertos_intfs.o [8]
netdev_open             0x100244bd     0xc  Code  Gb  freertos_intfs.o [8]
netif_add               0x1001d793    0x54  Code  Gb  netif.o [2]
netif_default           0x10053890     0x4  Data  Gb  netif.o [2]
netif_get_idx           0x10024953    0x16  Code  Gb  lwip_intf.o [2]
netif_init              0x1001d791     0x2  Code  Gb  netif.o [2]
netif_is_valid_IP       0x10024921    0x32  Code  Gb  lwip_intf.o [2]
netif_list              0x1005388c     0x4  Data  Gb  netif.o [2]
netif_num               0x10053888     0x1  Data  Lc  netif.o [2]
netif_post_sleep_processing
                        0x10024979     0x4  Code  Gb  lwip_intf.o [2]
netif_rx                0x10024969     0xc  Code  Gb  lwip_intf.o [2]
netif_set_addr          0x1001d7e7    0x1e  Code  Gb  netif.o [2]
netif_set_default       0x1001d86d     0x6  Code  Gb  netif.o [2]
netif_set_down          0x1001d8b9    0x1a  Code  Gb  netif.o [2]
netif_set_gw            0x1001d85d     0x8  Code  Gb  netif.o [2]
netif_set_ipaddr        0x1001d805    0x58  Code  Gb  netif.o [2]
netif_set_netmask       0x1001d865     0x8  Code  Gb  netif.o [2]
netif_set_up            0x1001d881    0x38  Code  Gb  netif.o [2]
networktype_to_raid     0x10026763    0x3a  Code  Gb  rtw_wlan_util.o [8]
networktype_to_raid_ex  0x1002679d    0x6a  Code  Gb  rtw_wlan_util.o [8]
newImg2Addr             0x1004df18     0x4  Data  Gb  zc_hf_adpter.o [2]
next_timeout            0x10053880     0x4  Data  Lc  lwip_timers.o [2]
null_addr               0x10031bbc     0x8  Data  Gb  rtw_mlme_ext.o [8]
num_bits_set            0x1004cebb    0x12  Code  Lc  wps_validate.o [9]
odm_CCKPacketDetectionThresh
                        0x100444a3    0x4c  Code  Gb  phydm_DIG.o [8]
odm_CommonInfoSelfInit  0x10043215    0x5e  Code  Gb  phydm.o [8]
odm_CommonInfoSelfUpdate
                        0x10043273    0x52  Code  Gb  phydm.o [8]
odm_ConfigBB_AGC_8195A  0x1004550b     0x8  Code  Gb  phydm_RegConfig8195A.o [8]
odm_ConfigBB_PHY_8195A  0x10045541    0x3e  Code  Gb  phydm_RegConfig8195A.o [8]
odm_ConfigBB_PHY_REG_PG_8195A
                        0x10045513    0x28  Code  Gb  phydm_RegConfig8195A.o [8]
odm_ConfigBB_TXPWR_LMT_8195A
                        0x10045589    0x1a  Code  Gb  phydm_RegConfig8195A.o [8]
odm_ConfigMAC_8195A     0x10045507     0x4  Code  Gb  phydm_RegConfig8195A.o [8]
odm_ConfigRFReg_8195A   0x100454c9    0x2a  Code  Gb  phydm_RegConfig8195A.o [8]
odm_ConfigRF_RadioA_8195A
                        0x100454f9     0x8  Code  Gb  phydm_RegConfig8195A.o [8]
odm_DIG                 0x1004427b   0x1f2  Code  Gb  phydm_DIG.o [8]
odm_DIGInit             0x100441a5    0x88  Code  Gb  phydm_DIG.o [8]
odm_DIGbyRSSI_LPS       0x1004409b    0x60  Code  Gb  phydm_DIG.o [8]
odm_DigAbort            0x1004422d    0x22  Code  Gb  phydm_DIG.o [8]
odm_FAThresholdCheck    0x1004424f    0x2c  Code  Gb  phydm_DIG.o [8]
odm_FalseAlarmCounterStatistics
                        0x1004446d    0x36  Code  Gb  phydm_DIG.o [8]
odm_ForbiddenIGICheck   0x10044103    0x76  Code  Gb  phydm_DIG.o [8]
odm_IQCalibrate         0x100432df     0x2  Code  Gb  phydm.o [8]
odm_Process_RSSIForDM_8195A
                        0x1004356d   0x10e  Code  Gb  phydm_HWConfig.o [8]
odm_RSSIMonitorCheck    0x10043ca9    0x16  Code  Gb  phydm_RaInfo.o [8]
odm_RSSIMonitorCheckCE  0x10043cbf   0x164  Code  Gb  phydm_RaInfo.o [8]
odm_RSSIMonitorInit     0x10043c99     0x8  Code  Gb  phydm_RaInfo.o [8]
odm_RateAdaptiveMaskInit
                        0x10043e23    0x22  Code  Gb  phydm_RaInfo.o [8]
odm_RefreshRateAdaptiveMask
                        0x10043e45    0x16  Code  Gb  phydm_RaInfo.o [8]
odm_RefreshRateAdaptiveMaskCE
                        0x10043e5b    0x54  Code  Gb  phydm_RaInfo.o [8]
odm_RxPhyStatus8195A_Parsing
                        0x100433eb   0x162  Code  Gb  phydm_HWConfig.o [8]
odm_SignalScaleMapping  0x100433e9     0x2  Code  Gb  phydm_HWConfig.o [8]
odm_SignalScaleMapping_92CSeries
                        0x10043355    0x94  Code  Gb  phydm_HWConfig.o [8]
odm_TXPowerTrackingCheckCE
                        0x10044cf7    0x80  Code  Gb  phydm_PowerTracking.o [8]
odm_TXPowerTrackingInit
                        0x10044be9     0x2  Code  Gb  phydm_PowerTracking.o [8]
odm_TXPowerTrackingThermalMeterInit
                        0x10044c37    0xb2  Code  Gb  phydm_PowerTracking.o [8]
oldImg2Addr             0x1004df1c     0x4  Data  Gb  zc_hf_adpter.o [2]
osDelay                 0x100163b1    0x18  Code  Gb  cmsis_os.o [2]
os_get_random           0x1004931f     0xa  Code  Gb  os_freertos.o [9]
os_strdup               0x100492f1    0x2e  Code  Gb  os_freertos.o [9]
os_xqueue_create        0x10049329    0x18  Code  Gb  os_freertos.o [9]
os_xqueue_delete        0x10049351     0xa  Code  Gb  os_freertos.o [9]
os_xqueue_receive       0x10049341    0x10  Code  Gb  os_freertos.o [9]
os_xqueue_send          0x1004935b    0x10  Code  Gb  os_freertos.o [9]
os_zalloc               0x00017d99    0x26  Code  Gb  rom.o [11]
osdep_service           0x10007384   0x124  Data  Gb  freertos_service.o [2]
ota_platform_reset      0x1000faf9    0x2c  Code  Gb  update.o [2]
out                     0x1001c799    0x18  Code  Lc  xprintftiny.o [4]
p05                     0x0003ebf8     0xc  Data  Lc  rom.o [11]
pExportWlanIrqSemaphore
                        0x10055b08     0x4  Data  Gb  freertos_isr.o [8]
pUartLogCtl             0x100006a8     0x4  Data  Gb  rtl_consol.o [2]
p_jdsmart_callback      0x100557bc     0x4  Data  Gb  freertos_intfs.o [8]
p_wlan_autoreconnect_hdl
                        0x10055b14     0x4  Data  Gb  rtw_mlme.o [8]
p_wlan_init_done_callback
                        0x100557b4     0x4  Data  Gb  freertos_intfs.o [8]
p_wlan_uart_adapter_callback
                        0x100557b8     0x4  Data  Gb  freertos_intfs.o [8]
p_write_reconnect_ptr   0x1005335c     0x4  Data  Gb  example_wlan_fast_connect.o [2]
packet_filter_enable_num
                        0x10057cd6     0x1  Data  Lc  wifi_promisc.o [2]
paff_array              0x10053dc8    0x78  Data  Gb  wifi_promisc.o [2]
parse_param             0x10046e2b    0x56  Code  Gb  log_service.o [2]
parse_tlv_info          0x100170f1    0x9c  Code  Lc  wifi_simple_config_parser.o [8]
password                0x10051334    0x44  Data  Lc  atcmd_wifi.o [2]
pbuf_alloc              0x100185d5   0x112  Code  Gb  pbuf.o [2]
pbuf_alloced_custom     0x100186f5    0x4e  Code  Gb  pbuf.o [2]
pbuf_cat                0x10018879    0x26  Code  Gb  pbuf.o [2]
pbuf_chain              0x1001889f    0x10  Code  Gb  pbuf.o [2]
pbuf_clen               0x1001884f    0x10  Code  Gb  pbuf.o [2]
pbuf_coalesce           0x100189a1    0x2a  Code  Gb  pbuf.o [2]
pbuf_copy               0x100188af    0x92  Code  Gb  pbuf.o [2]
pbuf_copy_partial       0x10018941    0x60  Code  Gb  pbuf.o [2]
pbuf_free               0x100187f3    0x5c  Code  Gb  pbuf.o [2]
pbuf_free_ooseq_callback
                        0x1001856d    0x2a  Code  Lc  pbuf.o [2]
pbuf_free_ooseq_pending
                        0x10057cd4     0x1  Data  Gb  pbuf.o [2]
pbuf_header             0x10018791    0x62  Code  Gb  pbuf.o [2]
pbuf_pool_is_empty      0x10018597    0x32  Code  Lc  pbuf.o [2]
pbuf_realloc            0x10018743    0x4e  Code  Gb  pbuf.o [2]
pbuf_ref                0x1001885f    0x1a  Code  Gb  pbuf.o [2]
pcTaskGetTaskName       0x10014549     0xc  Code  Gb  tasks.o [2]
phy_BB8195a_Config_ParaFile
                        0x10040a2f    0xa6  Code  Lc  rtl8195a_phycfg.o [8]
phy_CalculateBitShift   0x00018221    0x16  Code  Gb  rom.o [11]
phy_ConvertTxPowerByRateInDbmToRelativeValues
                        0x1003c0db   0x14a  Code  Gb  hal_com_phycfg.o [8]
phy_GetChannelIndexOfTxPowerLimit
                        0x1003ca2d    0x3a  Code  Gb  hal_com_phycfg.o [8]
phy_GetChnlIndex        0x1003c3d1    0x10  Code  Gb  hal_com_phycfg.o [8]
phy_GetWorldWideLimit   0x1003ca09    0x24  Code  Gb  hal_com_phycfg.o [8]
phy_IQCalibrate_8195A   0x100422b1   0x2ec  Code  Gb  HalPhyRf_8195A.o [8]
phy_LCCalibrate_8195A   0x1004265b    0x6a  Code  Gb  HalPhyRf_8195A.o [8]
phy_PathA_IQK_8195A     0x10041839   0x148  Code  Gb  HalPhyRf_8195A.o [8]
phy_PathA_RxIQK8195A    0x100419ad   0x1a2  Code  Gb  HalPhyRf_8195A.o [8]
phy_PathB_IQK_8195A     0x10041b89    0x9a  Code  Gb  HalPhyRf_8195A.o [8]
phy_PostSetBwMode8195A  0x10040f25    0xf0  Code  Gb  rtl8195a_phycfg.o [8]
phy_RF6052_Config_ParaFile
                        0x10044549    0xf6  Code  Lc  rtl8195a_rf6052.o [8]
phy_RFSerialRead_8195A  0x100408d1    0xaa  Code  Lc  rtl8195a_phycfg.o [8]
phy_SetRegBW_8195A      0x10040edf    0x46  Code  Gb  rtl8195a_phycfg.o [8]
phy_SetTxPowerByRateBase
                        0x1003b8c1    0x5e  Code  Gb  hal_com_phycfg.o [8]
phy_SimularityCompare_8195A
                        0x1004215b   0x12a  Code  Gb  HalPhyRf_8195A.o [8]
phy_SpurCalibration_8195A
                        0x10040d75   0x14e  Code  Gb  rtl8195a_phycfg.o [8]
phy_StoreTxPowerByRateBase
                        0x1003b91f   0x136  Code  Gb  hal_com_phycfg.o [8]
phy_SwChnl8195A         0x10041043    0x86  Code  Gb  rtl8195a_phycfg.o [8]
phy_SwChnlAndSetBwMode8195A
                        0x100410dd    0x50  Code  Gb  rtl8195a_phycfg.o [8]
pin_function            0x100389b5     0x2  Code  Gb  pinmap.o [2]
ping_call               0x100538ac     0x4  Data  Lc  ping_test.o [2]
ping_count              0x100538a0     0x4  Data  Lc  ping_test.o [2]
ping_interval           0x100538a8     0x4  Data  Lc  ping_test.o [2]
ping_ip                 0x100538b0    0x10  Data  Lc  ping_test.o [2]
ping_seq                0x10053898     0x2  Data  Lc  ping_test.o [2]
ping_test               0x100487fd   0x170  Code  Gb  ping_test.o [2]
pmk_expansion_const     0x00035464    0x17  Data  Lc  rom.o [11]
poll_tcp                0x1001bc83    0x4c  Code  Lc  api_msg.o [2]
poly1305_update         0x0001b891   0x392  Code  Lc  rom.o [11]
pool                    0x10057c30    0x80  Data  Lc  random.o [9]
pool_pos                0x10057cb4     0x4  Data  Lc  random.o [9]
portctrl                0x1001f74f    0x7e  Code  Gb  rtw_recv.o [8]
post_sleep_callback     0x1004dc0c     0x4  Data  Gb  freertos_pmu.o [2]
pp                      0x1004e000     0x4  Data  Lc  wifi_simple_config_parser.o [8]
pre_example_entry       0x10049ed9     0x4  Code  Gb  example_entry.o [2]
pre_sleep_callback      0x1004dc08     0x4  Data  Gb  freertos_pmu.o [2]
pre_xmitframe           0x1003d8c3   0x100  Code  Lc  rtl8195a_xmit.o [8]
print_help_handler      0x10046ecb    0x1a  Code  Gb  log_service.o [2]
print_scan_result       0x100470f7    0xd4  Code  Lc  atcmd_wifi.o [2]
print_wlan_help         0x10047d5f    0x7e  Code  Gb  atcmd_wifi.o [2]
printf                  0x1004a0c9    0x24  Code  Gb  printf.o [4]
process_pwrbit_data     0x1001f7f9    0x40  Code  Gb  rtw_recv.o [8]
process_recv_indicatepkts
                        0x100202a1    0x54  Code  Gb  rtw_recv.o [8]
process_rssi            0x1003da1b    0x72  Code  Lc  rtl8195a_rxdesc.o [8]
process_wmmps_data      0x1001f839    0x7e  Code  Gb  rtw_recv.o [8]
profile_pkt_index       0x1004df60     0x4  Data  Lc  wifi_simple_config_parser.o [8]
promisc_OnBeacon        0x10018205   0x18a  Code  Lc  rtw_promisc.o [8]
promisc_add_packet_filter
                        0x1001b063    0x5e  Code  Gb  wifi_promisc.o [2]
promisc_callback        0x1001b159    0x44  Code  Lc  wifi_promisc.o [2]
promisc_callback        0x10055b0c     0x4  Data  Gb  rtw_promisc.o [8]
promisc_callback_all    0x1001b26f    0x4a  Code  Lc  wifi_promisc.o [2]
promisc_callback_all    0x10055b10     0x4  Data  Gb  rtw_promisc.o [8]
promisc_deinit          0x10017d83    0x46  Code  Gb  rtw_promisc.o [8]
promisc_disable_packet_filter
                        0x1001b0db    0x1a  Code  Gb  wifi_promisc.o [2]
promisc_enable_packet_filter
                        0x1001b0c1    0x1a  Code  Gb  wifi_promisc.o [2]
promisc_get_encrypt     0x10017e45    0x54  Code  Lc  rtw_promisc.o [8]
promisc_get_fixed_channel
                        0x100184c7    0x92  Code  Gb  rtw_promisc.o [8]
promisc_info_get        0x10017f55    0xaa  Code  Lc  rtw_promisc.o [8]
promisc_init_packet_filter
                        0x1001b039    0x2a  Code  Gb  wifi_promisc.o [2]
promisc_insert          0x10017e99    0xa0  Code  Lc  rtw_promisc.o [8]
promisc_recv_func       0x10018435    0x2c  Code  Gb  rtw_promisc.o [8]
promisc_recv_func_posthandle
                        0x10017fff    0x94  Code  Lc  rtw_promisc.o [8]
promisc_remove_packet_filter
                        0x1001b11d    0x3c  Code  Gb  wifi_promisc.o [2]
promisc_set             0x10018461    0x50  Code  Gb  rtw_promisc.o [8]
promisc_set_enable      0x10017dcf    0x6c  Code  Gb  rtw_promisc.o [8]
promisc_test            0x1001b1c5    0xaa  Code  Lc  wifi_promisc.o [2]
promisc_test_all        0x1001b2cf    0xb2  Code  Lc  wifi_promisc.o [2]
promisc_validate_recv_data_frame
                        0x10018095   0x168  Code  Lc  rtw_promisc.o [8]
promisc_validate_recv_frame
                        0x10018397    0x98  Code  Lc  rtw_promisc.o [8]
prvAddCurrentTaskToDelayedList
                        0x1001488d    0x30  Code  Lc  tasks.o [2]
prvAtoi                 0x0000f769    0x52  Code  Gb  rom.o [11]
prvCheckForValidListAndQueue
                        0x1001d50f    0x3c  Code  Lc  timers.o [2]
prvCopyDataFromQueue    0x1001ccb5    0x26  Code  Lc  queue.o [2]
prvCopyDataToQueue      0x1001cc47    0x6e  Code  Lc  queue.o [2]
prvDiagPrintf           0x0000f3ed    0x1e  Code  Gb  rom.o [11]
prvDiagSPrintf          0x0000f40d    0x1c  Code  Gb  rom.o [11]
prvGetExpectedIdleTime  0x10014489    0x20  Code  Lc  tasks.o [2]
prvIdleTask             0x100147bd    0x74  Code  Lc  tasks.o [2]
prvInitialiseTCBVariables
                        0x10014843    0x4a  Code  Lc  tasks.o [2]
prvInsertBlockIntoFreeList
                        0x100164d5    0x48  Code  Lc  heap_5.o [2]
prvInsertTimerInActiveList
                        0x1001d433    0x34  Code  Lc  timers.o [2]
prvIsQueueFull          0x1001cd3b    0x14  Code  Lc  queue.o [2]
prvProcessReceivedCommands
                        0x1001d469    0xa6  Code  Lc  timers.o [2]
prvResetNextTaskUnblockTime
                        0x100148bd    0x1a  Code  Lc  tasks.o [2]
prvSampleTimeNow        0x1001d3c1    0x72  Code  Lc  timers.o [2]
prvStrCmp               0x0000f719    0x2e  Code  Gb  rom.o [11]
prvStrCpy               0x0000f639    0x16  Code  Gb  rom.o [11]
prvStrLen               0x0000f699    0x18  Code  Gb  rom.o [11]
prvStrStr               0x0000f7bd    0x16  Code  Gb  rom.o [11]
prvTaskExitError        0x10016e55     0x8  Code  Lc  port.o [2]
prvTimerTask            0x1001d331    0x90  Code  Lc  timers.o [2]
prvUnlockQueue          0x1001ccdb    0x5a  Code  Lc  queue.o [2]
psk_derive              0x1003a955    0x9a  Code  Gb  rtw_psk.o [8]
psk_essid               0x100557d4    0x48  Data  Gb  rtw_psk.o [8]
psk_init                0x1003a9ff    0x88  Code  Gb  rtw_psk.o [8]
psk_passphrase          0x1005581c    0x84  Data  Gb  rtw_psk.o [8]
psk_passphrase64        0x100558f0    0x44  Data  Gb  rtw_psk.o [8]
psk_strip_rsn_pairwise  0x1003aa87    0x60  Code  Gb  rtw_psk.o [8]
psk_strip_wpa_pairwise  0x1003aae7    0x60  Code  Gb  rtw_psk.o [8]
putchar                 0x1004d767    0x28  Code  Gb  putchar.o [4]
pvPortMalloc            0x100163c9    0xaa  Code  Gb  heap_5.o [2]
pvTaskIncrementMutexHeldCount
                        0x100149d7    0x12  Code  Gb  tasks.o [2]
pwr_state_check_handler
                        0x1001eab1     0x4  Code  Gb  rtw_pwrctrl.o [8]
pxCurrentTCB            0x1004dc64     0x4  Data  Gb  tasks.o [2]
pxCurrentTimerList      0x10053bf0     0x4  Data  Lc  timers.o [2]
pxDelayedTaskList       0x1004dc68     0x4  Data  Lc  tasks.o [2]
pxEnd                   0x10053648     0x4  Data  Lc  heap_5.o [2]
pxOverflowDelayedTaskList
                        0x1004dc6c     0x4  Data  Lc  tasks.o [2]
pxOverflowTimerList     0x10053bf4     0x4  Data  Lc  timers.o [2]
pxPortInitialiseStack   0x10016e39    0x1c  Code  Gb  port.o [2]
pxReadyTasksLists       0x10053acc    0xdc  Data  Lc  tasks.o [2]
qos_acm                 0x1002cfd1    0x30  Code  Gb  rtw_xmit.o [8]
queue_for_credential    0x10053e84     0x4  Data  Gb  wifi_wps_config.o [2]
quorem                  0x0002c649   0x134  Code  Lc  rom.o [11]
radom_value             0x10055b18     0x4  Data  Lc  wifi_simple_config_parser.o [8]
ram                     0x1fff0000     0x4  Data  Lc  mem.o [2]
ram_end                 0x1fff0004     0x4  Data  Lc  mem.o [2]
ram_heap                0x1fff000c  0x1414  Data  Gb  mem.o [2]
ram_libgloss_close      0x100162ad     0x2  Code  Gb  ram_libgloss_retarget.o [7]
ram_libgloss_fstat      0x100162af    0x1a  Code  Gb  ram_libgloss_retarget.o [7]
ram_libgloss_isatty     0x100162c9     0xa  Code  Gb  ram_libgloss_retarget.o [7]
ram_libgloss_lseek      0x100162d3     0x2  Code  Gb  ram_libgloss_retarget.o [7]
ram_libgloss_open       0x100162e1    0x34  Code  Gb  ram_libgloss_retarget.o [7]
ram_libgloss_read       0x10016315     0x2  Code  Gb  ram_libgloss_retarget.o [7]
ram_libgloss_sbrk       0x10016331    0x14  Code  Gb  ram_libgloss_retarget.o [7]
ram_libgloss_write      0x10016317    0x1a  Code  Gb  ram_libgloss_retarget.o [7]
rand                    0x1000e20d    0xe0  Code  Gb  rand.o [4]
rand_x                  0x1fff0090     0x4  Data  Gb  hal_sdr_controller.o [2]
random_get_bytes        0x10049d45    0x9a  Code  Gb  random.o [9]
random_mix_pool         0x10049cbd    0x7c  Code  Lc  random.o [9]
ratetbl2rateset         0x100268d3    0x46  Code  Gb  rtw_wlan_util.o [8]
ratetbl_val_2wifirate   0x10026859    0x4c  Code  Gb  rtw_wlan_util.o [8]
raw_bind                0x1002511b     0xa  Code  Gb  raw.o [2]
raw_connect             0x10025125     0xa  Code  Gb  raw.o [2]
raw_input               0x100250ad    0x6e  Code  Gb  raw.o [2]
raw_new                 0x100251eb    0x28  Code  Gb  raw.o [2]
raw_pcbs                0x100538cc     0x4  Data  Lc  raw.o [2]
raw_recv                0x1002512f     0x6  Code  Gb  raw.o [2]
raw_remove              0x100251c3    0x28  Code  Gb  raw.o [2]
raw_send                0x100251bf     0x4  Code  Gb  raw.o [2]
raw_sendto              0x10025135    0x8a  Code  Gb  raw.o [2]
rcon                    0x1000bbb4    0x28  Data  Lc  aes_core.o [2]
rcon_table              0x0003557c     0xc  Data  Lc  rom.o [11]
reassdatagrams          0x10053694     0x4  Data  Lc  ip_frag.o [2]
receive_disconnect      0x10031271    0x56  Code  Gb  rtw_mlme_ext.o [8]
reconnect_timer_hdl     0x10020995    0x6c  Code  Gb  rtw_mlme.o [8]
recv_data               0x10053bdc     0x4  Data  Lc  tcp_in.o [2]
recv_decache            0x1001f7cd    0x2c  Code  Gb  rtw_recv.o [8]
recv_flags              0x10053bb5     0x1  Data  Lc  tcp_in.o [2]
recv_func               0x1002037b    0xa0  Code  Gb  rtw_recv.o [8]
recv_func_posthandle    0x10020315    0x60  Code  Gb  rtw_recv.o [8]
recv_func_prehandle     0x100202f5    0x20  Code  Gb  rtw_recv.o [8]
recv_indicatepkt_reorder
                        0x1002027f    0x22  Code  Gb  rtw_recv.o [8]
recv_raw                0x1001bb4d    0x70  Code  Lc  api_msg.o [2]
recv_tcp                0x1001bc21    0x62  Code  Lc  api_msg.o [2]
recv_udp                0x1001bbbd    0x64  Code  Lc  api_msg.o [2]
recvframe_chk_defrag    0x10020233    0x46  Code  Gb  rtw_recv.o [8]
recvframe_chkmic        0x1001f5d5    0xc2  Code  Gb  rtw_recv.o [8]
recvframe_pull          0x1001f309    0x22  Code  Lc  rtw_recv.o [8]
recvframe_pull_tail     0x1001f32b    0x22  Code  Lc  rtw_recv.o [8]
recvframe_put           0x10032a69    0x22  Code  Lc  lxbus_ops.o [8]
release_buf_to_poll     0x1002051b    0x12  Code  Lc  freertos_skbuff.o [8]
release_wakelock        0x1001d61b     0xc  Code  Gb  freertos_pmu.o [2]
remove_filter           0x10010b73    0x12  Code  Gb  wifi_simple_config.o [2]
report_add_sta_event    0x100318c1    0x82  Code  Gb  rtw_mlme_ext.o [8]
report_del_sta_event    0x10031833    0x8e  Code  Gb  rtw_mlme_ext.o [8]
report_join_res         0x100317a1    0x70  Code  Gb  rtw_mlme_ext.o [8]
report_scan_result_one  0x100312c7   0x188  Code  Gb  rtw_mlme_ext.o [8]
report_survey_event     0x100315df   0x14e  Code  Gb  rtw_mlme_ext.o [8]
report_surveydone_event
                        0x10031739    0x60  Code  Gb  rtw_mlme_ext.o [8]
restore_flags           0x10023801     0x4  Code  Gb  freertos_service.o [2]
restore_wifi_info_to_flash
                        0x100122c1   0x118  Code  Gb  wifi_conf.o [2]
retrieve_frame          0x1001b19d    0x28  Code  Gb  wifi_promisc.o [2]
rf_reg_dump             0x100348fb    0x88  Code  Gb  freertos_ioctl.o [8]
rltk_get_idx_bydev      0x1001936b    0x22  Code  Gb  rtk_wlan_if.o [8]
rltk_netif_rx           0x100195d9    0xa6  Code  Gb  rtk_wlan_if.o [8]
rltk_wlan_alloc_skb     0x1001957b    0x28  Code  Gb  rtk_wlan_if.o [8]
rltk_wlan_check_isup    0x10019539     0x2  Code  Gb  rtk_wlan_if.o [8]
rltk_wlan_control       0x1001967f    0x86  Code  Gb  rtk_wlan_if.o [8]
rltk_wlan_deinit        0x10019429    0xde  Code  Gb  rtk_wlan_if.o [8]
rltk_wlan_get_recv_skb  0x1001956d     0xe  Code  Gb  rtk_wlan_if.o [8]
rltk_wlan_handshake_done
                        0x100197db    0x2a  Code  Gb  rtk_wlan_if.o [8]
rltk_wlan_info          0x10055770    0x30  Data  Gb  rtk_wlan_if.o [8]
rltk_wlan_init          0x1001938d    0x94  Code  Gb  rtk_wlan_if.o [8]
rltk_wlan_is_connected_to_ap
                        0x1001984b    0x46  Code  Gb  rtk_wlan_if.o [8]
rltk_wlan_recv          0x100248c1    0x60  Code  Gb  lwip_intf.o [2]
rltk_wlan_running       0x10019713     0xa  Code  Gb  rtk_wlan_if.o [8]
rltk_wlan_send          0x10024819    0xa8  Code  Gb  lwip_intf.o [2]
rltk_wlan_send_skb      0x100195a3    0x36  Code  Gb  rtk_wlan_if.o [8]
rltk_wlan_set_netif_info
                        0x100247fd    0x1c  Code  Gb  lwip_intf.o [2]
rltk_wlan_set_wps_phase
                        0x10019813    0x32  Code  Gb  rtk_wlan_if.o [8]
rltk_wlan_start         0x10019507    0x32  Code  Gb  rtk_wlan_if.o [8]
rltk_wlan_statistic     0x1001971d    0xb6  Code  Gb  rtk_wlan_if.o [8]
rltk_wlan_tx_dec        0x1001955b    0x12  Code  Gb  rtk_wlan_if.o [8]
rltk_wlan_tx_inc        0x10019549    0x12  Code  Gb  rtk_wlan_if.o [8]
rom_aes_128_cbc_decrypt
                        0x00015ae1    0x7c  Code  Gb  rom.o [11]
rom_aes_128_cbc_encrypt
                        0x00015a65    0x7c  Code  Gb  rom.o [11]
rom_aes_decrypt_deinit  0x00016071    0x12  Code  Gb  rom.o [11]
rom_aes_decrypt_init    0x00015c39    0xdc  Code  Gb  rom.o [11]
rom_aes_encrypt_deinit  0x00016451    0x12  Code  Gb  rom.o [11]
rom_aes_encrypt_init    0x00016085    0x18  Code  Gb  rom.o [11]
rom_aes_internal_decrypt
                        0x00015d15   0x35c  Code  Gb  rom.o [11]
rom_aes_internal_encrypt
                        0x0001609d   0x3b2  Code  Gb  rom.o [11]
rom_e_rtw_msgp_str_     0x1004e0e4   0x1b0  Data  Gb  rom_rtw_message.o [8]
rom_ed25519_crypto_sign_detached
                        0x0001d579    0xdc  Code  Gb  rom.o [11]
rom_ed25519_crypto_sign_seed_keypair
                        0x0001d521    0x56  Code  Gb  rom.o [11]
rom_ed25519_crypto_sign_verify_detached
                        0x0001d655   0x2c2  Code  Gb  rom.o [11]
rom_ed25519_ge_double_scalarmult_vartime
                        0x0001f86d   0x3c8  Code  Gb  rom.o [11]
rom_ed25519_ge_frombytes_negate_vartime
                        0x0001fc35   0xba0  Code  Gb  rom.o [11]
rom_ed25519_ge_p3_tobytes
                        0x000207d5    0x4a  Code  Gb  rom.o [11]
rom_ed25519_ge_scalarmult_base
                        0x00020821   0x1c0  Code  Gb  rom.o [11]
rom_ed25519_ge_tobytes  0x000209e1    0x4a  Code  Gb  rom.o [11]
rom_ed25519_gen_keypair
                        0x0001d501     0x4  Code  Gb  rom.o [11]
rom_ed25519_gen_signature
                        0x0001d505    0x18  Code  Gb  rom.o [11]
rom_ed25519_sc_muladd   0x00020a2d  0x5610  Code  Gb  rom.o [11]
rom_ed25519_sc_reduce   0x0002603d  0x2a0e  Code  Gb  rom.o [11]
rom_ed25519_verify_signature
                        0x0001d51d     0x4  Code  Gb  rom.o [11]
rom_hmac_sha256         0x00017ebd    0x1c  Code  Gb  rom.o [11]
rom_hmac_sha256_vector  0x00017dc1    0xfc  Code  Gb  rom.o [11]
rom_libgloss_ram_map    0x10000760    0x20  Data  Gb  rom.o [11]
rom_psk_CalcGTK         0x00013ed5    0x92  Code  Gb  rom.o [11]
rom_psk_CalcPTK         0x00013f69   0x104  Code  Gb  rom.o [11]
rom_psk_PasswordHash    0x00013e9d    0x38  Code  Gb  rom.o [11]
rom_rijndaelKeySetupEnc
                        0x00015b5d    0xdc  Code  Gb  rom.o [11]
rom_sha256_vector       0x00018009   0x216  Code  Gb  rom.o [11]
rom_sha512              0x0001d261    0x36  Code  Gb  rom.o [11]
rom_sha512_finish       0x0001d011   0x250  Code  Gb  rom.o [11]
rom_sha512_hkdf         0x0001d40d    0xf2  Code  Gb  rom.o [11]
rom_sha512_hmac         0x0001d3d1    0x3c  Code  Gb  rom.o [11]
rom_sha512_hmac_finish  0x0001d365    0x4e  Code  Gb  rom.o [11]
rom_sha512_hmac_reset   0x0001d3b5    0x1a  Code  Gb  rom.o [11]
rom_sha512_hmac_starts  0x0001d299    0xc2  Code  Gb  rom.o [11]
rom_sha512_hmac_update  0x0001d35d     0x6  Code  Gb  rom.o [11]
rom_sha512_starts       0x0001ceb5   0x154  Code  Gb  rom.o [11]
rom_sha512_update       0x0001d009     0x6  Code  Gb  rom.o [11]
rom_sha512_update.part.0
                        0x0001cded    0xc6  Code  Lc  rom.o [11]
rom_wlan_ram_map        0x100006d4     0x8  Data  Gb  rom_wlan_ram_map.o [11]
rom_wps_Td0             0x00035e94   0x400  Data  Gb  rom.o [11]
rom_wps_Td4s            0x00035d94   0x100  Data  Gb  rom.o [11]
rom_wps_Te0             0x00035988   0x400  Data  Gb  rom.o [11]
rom_wps_rcons           0x00035d88     0xa  Data  Gb  rom.o [11]
rpt_timer_setting_wk_hdl
                        0x10028009     0xc  Code  Gb  rtw_cmd.o [8]
rsa_free                0x10014cbd    0x60  Code  Gb  rsa.o [2]
rsa_init                0x10014a0d    0x24  Code  Gb  rsa.o [2]
rsa_pkcs1_decrypt       0x10014c2f    0x72  Code  Gb  rsa.o [2]
rsa_pkcs1_encrypt       0x10014bad    0x82  Code  Gb  rsa.o [2]
rsa_private             0x10014aa9    0xfa  Code  Gb  rsa.o [2]
rsa_public              0x10014a31    0x78  Code  Gb  rsa.o [2]
rt_arc4_crypt           0x00012901    0x2a  Code  Gb  rom.o [11]
rt_arc4_init            0x000128bd    0x42  Code  Gb  rom.o [11]
rt_hmac_sha1            0x00015909   0x15a  Code  Gb  rom.o [11]
rt_md5_append           0x000131f5    0x88  Code  Gb  rom.o [11]
rt_md5_final            0x0001327d    0x56  Code  Gb  rom.o [11]
rt_md5_hmac             0x000132d5   0x144  Code  Gb  rom.o [11]
rt_md5_init             0x000131c1    0x34  Code  Gb  rom.o [11]
rt_sha1_finish          0x000158a9    0x60  Code  Gb  rom.o [11]
rt_sha1_init            0x000157e5    0x4c  Code  Gb  rom.o [11]
rt_sha1_update          0x00015831    0x76  Code  Gb  rom.o [11]
rtk_clean_profile_value
                        0x100174af    0x8c  Code  Lc  wifi_simple_config_parser.o [8]
rtk_restart_simple_config
                        0x10017545    0x18  Code  Gb  wifi_simple_config_parser.o [8]
rtk_sc_check_packet     0x10017483    0x2c  Code  Lc  wifi_simple_config_parser.o [8]
rtk_sc_decode_profile   0x100170c5    0x16  Code  Lc  wifi_simple_config_parser.o [8]
rtk_sc_deinit           0x100176d1    0x22  Code  Gb  wifi_simple_config_parser.o [8]
rtk_sc_generate_key     0x100170af    0x16  Code  Lc  wifi_simple_config_parser.o [8]
rtk_sc_get_tlv_info     0x100170db    0x16  Code  Lc  wifi_simple_config_parser.o [8]
rtk_sc_init             0x1001756d   0x13a  Code  Gb  wifi_simple_config_parser.o [8]
rtk_sc_register_pattern
                        0x10017089    0x26  Code  Lc  wifi_simple_config_parser.o [8]
rtk_start_parse_packet  0x100176ff   0x244  Code  Gb  wifi_simple_config_parser.o [8]
rtk_stop_simple_config  0x1001755d    0x10  Code  Gb  wifi_simple_config_parser.o [8]
rtl8192ee_check_rxdesc_remain
                        0x10033445    0x2e  Code  Gb  lxbus_ops.o [8]
rtl8195A_card_disable_flow
                        0x1004e330    0xa0  Data  Gb  Hal8195APwrSeq.o [8]
rtl8195A_card_enable_flow
                        0x1004e3d0    0xa0  Data  Gb  Hal8195APwrSeq.o [8]
rtl8195a_Add_RateATid   0x10043c1d    0x54  Code  Gb  rtl8195a_cmd.o [8]
rtl8195a_DeInitSwLeds   0x1004d74f     0x2  Code  Gb  rtl8195a_led.o [8]
rtl8195a_FirmwareDownload
                        0x1003e363     0x4  Code  Gb  rtl8195a_hal_init.o [8]
rtl8195a_HalDmWatchDog  0x1003afef    0xd2  Code  Gb  rtl8195a_dm.o [8]
rtl8195a_HalDmWatchDog_in_LPS
                        0x1003b0c3     0x2  Code  Gb  rtl8195a_dm.o [8]
rtl8195a_InitAntenna_Selection
                        0x1003f0e1     0x2  Code  Gb  rtl8195a_hal_init.o [8]
rtl8195a_InitBeaconMaxError
                        0x1003ec1b     0x2  Code  Gb  rtl8195a_hal_init.o [8]
rtl8195a_InitBeaconParameters
                        0x1003eb95    0x86  Code  Gb  rtl8195a_hal_init.o [8]
rtl8195a_InitHalDm      0x1003afb3    0x3c  Code  Gb  rtl8195a_dm.o [8]
rtl8195a_InitLLTTable   0x1003f0e5    0x48  Code  Gb  rtl8195a_hal_init.o [8]
rtl8195a_InitSwLeds     0x1004d74d     0x2  Code  Gb  rtl8195a_led.o [8]
rtl8195a_InitializeFirmwareVars
                        0x1003e367     0x2  Code  Gb  rtl8195a_hal_init.o [8]
rtl8195a_SetBeaconRelatedRegisters
                        0x1003eca1    0xae  Code  Lc  rtl8195a_hal_init.o [8]
rtl8195a_adaptivity_needed
                        0x1003aea7    0x12  Code  Gb  rtl8195a_dm.o [8]
rtl8195a_check_txdesc_closed
                        0x10032ecb    0x90  Code  Gb  lxbus_ops.o [8]
rtl8195a_deinit_dm_priv
                        0x1003b0e5     0x2  Code  Gb  rtl8195a_dm.o [8]
rtl8195a_dequeue_xmitbuf
                        0x1003d173    0x26  Code  Gb  rtl8195a_xmit.o [8]
rtl8195a_download_rsvd_page
                        0x10043bed    0x26  Code  Gb  rtl8195a_cmd.o [8]
rtl8195a_enqueue_xmitbuf
                        0x1003d14d    0x26  Code  Gb  rtl8195a_xmit.o [8]
rtl8195a_fill_default_txdesc
                        0x1003f69b   0x282  Code  Lc  rtl8195a_hal_init.o [8]
rtl8195a_fill_fake_txdesc
                        0x1003f993    0xd0  Code  Gb  rtl8195a_hal_init.o [8]
rtl8195a_free_desc_ring
                        0x10032cbf    0x1c  Code  Gb  lxbus_ops.o [8]
rtl8195a_free_hal_data  0x1003e369    0x1a  Code  Lc  rtl8195a_hal_init.o [8]
rtl8195a_free_recv_priv
                        0x10009e07     0x2  Code  Gb  rtl8195a_recv.o [8]
rtl8195a_free_rx_ring   0x10032b19    0x1c  Code  Lc  lxbus_ops.o [8]
rtl8195a_free_tx_ring   0x10032bb1    0x8e  Code  Lc  lxbus_ops.o [8]
rtl8195a_hal_deinit     0x100381a1    0x2a  Code  Lc  lxbus_halinit.o [8]
rtl8195a_hal_dm_in_lps  0x1003b0c1     0x2  Code  Gb  rtl8195a_dm.o [8]
rtl8195a_hal_init       0x10037eeb   0x2ac  Code  Lc  lxbus_halinit.o [8]
rtl8195a_if2_clone_recvframe
                        0x1003338f    0x78  Code  Lc  lxbus_ops.o [8]
rtl8195a_init_default_value
                        0x1003f0e3     0x2  Code  Gb  rtl8195a_hal_init.o [8]
rtl8195a_init_desc_ring
                        0x10032c3f    0x80  Code  Gb  lxbus_ops.o [8]
rtl8195a_init_dm_priv   0x1003b0c5    0x20  Code  Gb  rtl8195a_dm.o [8]
rtl8195a_init_recv_priv
                        0x10009e03     0x4  Code  Gb  rtl8195a_recv.o [8]
rtl8195a_init_rx_ring   0x10032a95    0x84  Code  Lc  lxbus_ops.o [8]
rtl8195a_init_tx_ring   0x10032b35    0x7c  Code  Lc  lxbus_ops.o [8]
rtl8195a_interface_configure
                        0x100381dd    0x4e  Code  Lc  lxbus_halinit.o [8]
rtl8195a_process_phy_info
                        0x1003da8d     0x2  Code  Gb  rtl8195a_rxdesc.o [8]
rtl8195a_query_rx_desc_status
                        0x1003da8f    0xba  Code  Gb  rtl8195a_rxdesc.o [8]
rtl8195a_query_rx_phy_status
                        0x1003db49   0x16a  Code  Gb  rtl8195a_rxdesc.o [8]
rtl8195a_read_chip_version
                        0x1003eb0b    0x8a  Code  Lc  rtl8195a_hal_init.o [8]
rtl8195a_recv_tasklet   0x100336df    0x4a  Code  Gb  lxbus_ops.o [8]
rtl8195a_reset_desc_ring
                        0x10032cdb    0x88  Code  Gb  lxbus_ops.o [8]
rtl8195a_rx_mpdu        0x10033473   0x26c  Code  Lc  lxbus_ops.o [8]
rtl8195a_set_FwJoinBssRpt_cmd
                        0x10043c13     0xa  Code  Gb  rtl8195a_cmd.o [8]
rtl8195a_set_FwMacIdConfig_cmd
                        0x100439df    0x82  Code  Gb  rtl8195a_cmd.o [8]
rtl8195a_set_FwMediaStatusRpt_cmd
                        0x100439bb    0x24  Code  Gb  rtl8195a_cmd.o [8]
rtl8195a_set_FwPwrMode_cmd
                        0x10043a69    0x68  Code  Gb  rtl8195a_cmd.o [8]
rtl8195a_set_FwRsvdPagePkt
                        0x10043ad1   0x112  Code  Lc  rtl8195a_cmd.o [8]
rtl8195a_set_FwRsvdPage_cmd
                        0x100439b3     0x8  Code  Gb  rtl8195a_cmd.o [8]
rtl8195a_set_hal_ops    0x1003efd1    0x84  Code  Gb  rtl8195a_hal_init.o [8]
rtl8195a_start_thread   0x10040751    0x4e  Code  Gb  rtl8195a_hal_init.o [8]
rtl8195a_stop_thread    0x100407cf    0x2a  Code  Gb  rtl8195a_hal_init.o [8]
rtl8195a_tx_int_handler
                        0x10033735    0x22  Code  Gb  lxbus_ops.o [8]
rtl8195a_tx_isr         0x10032f5b    0xe0  Code  Lc  lxbus_ops.o [8]
rtl8195a_update_txdesc  0x1003f961    0x32  Code  Gb  rtl8195a_hal_init.o [8]
rtl8195a_xmit_tasklet   0x100338e1    0x26  Code  Gb  lxbus_ops.o [8]
rtl8195ab_free_xmit_priv
                        0x1003d123     0x8  Code  Gb  rtl8195a_xmit.o [8]
rtl8195ab_hal_xmit      0x1003da07     0x2  Code  Gb  rtl8195a_xmit.o [8]
rtl8195ab_init_default_value
                        0x100381d9     0x4  Code  Lc  lxbus_halinit.o [8]
rtl8195ab_init_xmit_priv
                        0x1003d115     0xe  Code  Gb  rtl8195a_xmit.o [8]
rtl8195ab_mgnt_xmit     0x1003d9cb    0x3c  Code  Gb  rtl8195a_xmit.o [8]
rtl8195ab_set_hal_ops   0x100384a7    0x96  Code  Gb  lxbus_halinit.o [8]
rtl8195ab_xmitframe_resume
                        0x1003d5e5    0xd8  Code  Gb  rtl8195a_xmit.o [8]
rtl_cryptoEngine_init   0x1004acb9    0x1c  Code  Gb  hal_crypto.o [6]
rtl_memcmp              0x1000facd     0x4  Code  Gb  ram_libc.o [7]
rtl_memcpy              0x1000fad1     0x4  Code  Gb  ram_libc.o [7]
rtl_memset              0x1000fad5     0x4  Code  Gb  ram_libc.o [7]
rtl_printf              0x1000fa8b    0x3a  Code  Gb  ram_libc.o [7]
rtl_snprintf            0x1000f9b9    0x7c  Code  Gb  ram_libc.o [7]
rtl_sprintf             0x1000fa35    0x56  Code  Gb  ram_libc.o [7]
rtl_strcmp              0x1000fad9     0x4  Code  Gb  ram_libc.o [7]
rtl_strcpy              0x1000fadd     0x4  Code  Gb  ram_libc.o [7]
rtl_strlen              0x1000fae1     0x4  Code  Gb  ram_libc.o [7]
rtl_strncpy             0x1000fae5     0x4  Code  Gb  ram_libc.o [7]
rtl_strsep              0x1000fae9     0x4  Code  Gb  ram_libc.o [7]
rtl_strtok              0x1000faed     0x4  Code  Gb  ram_libc.o [7]
rtw_acquire_wakelock    0x100169b9     0xe  Code  Gb  osdep_service.o [2]
rtw_add_network         0x10020f5d    0x46  Code  Gb  rtw_mlme.o [8]
rtw_aes_decrypt         0x1002c5f5    0x7c  Code  Gb  rtw_security.o [8]
rtw_aes_encrypt         0x1002c56f    0x76  Code  Gb  rtw_security.o [8]
rtw_alloc_etherdev      0x10037b03    0x2a  Code  Gb  netdev.o [8]
rtw_alloc_etherdev_with_old_priv
                        0x10037aed    0x16  Code  Gb  netdev.o [8]
rtw_alloc_hwxmits       0x1002dc1f    0x56  Code  Gb  rtw_xmit.o [8]
rtw_alloc_network       0x10020d0b     0x2  Code  Gb  rtw_mlme.o [8]
rtw_alloc_recvframe     0x1001f487    0x10  Code  Gb  rtw_recv.o [8]
rtw_alloc_stainfo       0x1002c951    0xb8  Code  Gb  rtw_sta_mgt.o [8]
rtw_alloc_xmitbuf       0x1002d9c3    0x48  Code  Gb  rtw_xmit.o [8]
rtw_alloc_xmitbuf_ext   0x1002d915    0x76  Code  Gb  rtw_xmit.o [8]
rtw_alloc_xmitframe     0x1002da83    0x56  Code  Gb  rtw_xmit.o [8]
rtw_basic_rate_cck      0x10027650     0x4  Data  Lc  rtw_wlan_util.o [8]
rtw_basic_rate_mix      0x10027658     0x8  Data  Lc  rtw_wlan_util.o [8]
rtw_basic_rate_ofdm     0x10027654     0x4  Data  Lc  rtw_wlan_util.o [8]
rtw_bb_rf_gain_offset   0x1002aa03    0x42  Code  Gb  hal_com.o [8]
rtw_bridge_tunnel_header
                        0x100204b8     0x8  Data  Gb  rtw_recv.o [8]
rtw_buddy_adapter_up    0x10021c3d    0x30  Code  Gb  rtw_mlme.o [8]
rtw_cancel_all_timer    0x100263fb    0x6e  Code  Gb  rtw_intfs.o [8]
rtw_cancel_timer        0x1001690d    0x12  Code  Gb  osdep_service.o [2]
rtw_check_bcn_info      0x10026f89   0x1e4  Code  Gb  rtw_wlan_util.o [8]
rtw_check_beacon_data   0x1002b499   0x37e  Code  Gb  rtw_ap.o [8]
rtw_check_network_type  0x000134dd    0x2e  Code  Gb  rom.o [11]
rtw_chk_hi_queue_cmd    0x1002806f    0x2e  Code  Gb  rtw_cmd.o [8]
rtw_clearstakey_cmd     0x10027d21    0x90  Code  Gb  rtw_cmd.o [8]
rtw_cmd_callback        0x10028214   0x1f8  Data  Gb  rtw_cmd.o [8]
rtw_cmd_filter          0x1002776d    0x24  Code  Gb  rtw_cmd.o [8]
rtw_cmd_thread          0x10027815   0x11c  Code  Gb  rtw_cmd.o [8]
rtw_config_map_read     0x1003e229    0x5c  Code  Gb  rtw_efuse.o [8]
rtw_config_map_write    0x1003e28f    0x62  Code  Gb  rtw_efuse.o [8]
rtw_count_tx_stats      0x1002d8c3    0x52  Code  Gb  rtw_xmit.o [8]
rtw_create_task         0x100169d5    0x1e  Code  Gb  osdep_service.o [2]
rtw_dbg_port            0x10034b29   0x53e  Code  Lc  freertos_ioctl.o [8]
rtw_deinit_xqueue       0x10016841    0x12  Code  Gb  osdep_service.o [2]
rtw_del_mlme_timer      0x10020975    0x20  Code  Gb  rtw_mlme.o [8]
rtw_del_timer           0x1001691f     0xe  Code  Gb  osdep_service.o [2]
rtw_delete_task         0x100169f3     0xe  Code  Gb  osdep_service.o [2]
rtw_dequeue_cmd         0x100277e5     0x2  Code  Gb  rtw_cmd.o [8]
rtw_dequeue_xframe      0x1003d55f    0x80  Code  Gb  rtl8195a_xmit.o [8]
rtw_dev_remove          0x1002472f    0x42  Code  Gb  freertos_intfs.o [8]
rtw_disassoc_cmd        0x10027c0b    0x30  Code  Gb  rtw_cmd.o [8]
rtw_disassoc_cmd_callback
                        0x100281a1    0x2e  Code  Gb  rtw_cmd.o [8]
rtw_do_join             0x10036097    0x8c  Code  Gb  rtw_ioctl_set.o [8]
rtw_down_sema           0x10016737    0x14  Code  Gb  osdep_service.o [2]
rtw_down_timeout_sema   0x10016727    0x10  Code  Gb  osdep_service.o [2]
rtw_drv_deinit          0x100265b5     0xe  Code  Gb  rtw_intfs.o [8]
rtw_drv_entry           0x10024771    0x28  Code  Gb  freertos_intfs.o [8]
rtw_drv_halt            0x10024799    0x2a  Code  Gb  freertos_intfs.o [8]
rtw_drv_if2_free        0x10024371    0x44  Code  Gb  freertos_intfs.o [8]
rtw_drv_if2_init        0x10024157   0x1d0  Code  Gb  freertos_intfs.o [8]
rtw_drv_if2_stop        0x10024327    0x4a  Code  Gb  freertos_intfs.o [8]
rtw_drv_probe           0x100246dd    0x52  Code  Gb  freertos_intfs.o [8]
rtw_drvextra_cmd_hdl    0x100280ad    0xe4  Code  Gb  rtw_cmd.o [8]
rtw_dummy_event_callback
                        0x10021133     0x2  Code  Gb  rtw_mlme.o [8]
rtw_dump_xframe         0x1003d2b7   0x1a0  Code  Gb  rtl8195a_xmit.o [8]
rtw_dynamic_check_timer_handlder
                        0x100216d3    0xbc  Code  Gb  rtw_mlme.o [8]
rtw_dynamic_chk_wk_cmd  0x10027dd7    0x36  Code  Gb  rtw_cmd.o [8]
rtw_efuse_map_read      0x1003df95    0x32  Code  Gb  rtw_efuse.o [8]
rtw_end_of_queue_search
                        0x100167b9     0xc  Code  Gb  osdep_service.o [2]
rtw_enqueue_cmd         0x10027791    0x54  Code  Gb  rtw_cmd.o [8]
rtw_enqueue_recvframe   0x1001f563    0x18  Code  Gb  rtw_recv.o [8]
rtw_enter_critical      0x10016767     0xe  Code  Gb  osdep_service.o [2]
rtw_enter_critical_bh   0x10016783     0x2  Code  Gb  osdep_service.o [2]
rtw_enter_critical_mutex
                        0x10016787    0x10  Code  Gb  osdep_service.o [2]
rtw_ex_get              0x100352af   0x112  Code  Gb  freertos_ioctl.o [8]
rtw_ex_get_ap_info      0x10035155    0xd4  Code  Lc  freertos_ioctl.o [8]
rtw_ex_get_client_list  0x100350c1    0x94  Code  Lc  freertos_ioctl.o [8]
rtw_ex_set              0x10035235    0x7a  Code  Gb  freertos_ioctl.o [8]
rtw_exit_critical       0x10016775     0xe  Code  Gb  osdep_service.o [2]
rtw_exit_critical_bh    0x10016785     0x2  Code  Gb  osdep_service.o [2]
rtw_exit_critical_mutex
                        0x10016797     0xe  Code  Gb  osdep_service.o [2]
rtw_find_network        0x10020d11     0x2  Code  Gb  rtw_mlme.o [8]
rtw_flash_map_erase     0x1003e0bb    0x28  Code  Lc  rtw_efuse.o [8]
rtw_flash_map_write     0x1003e0e3   0x126  Code  Lc  rtw_efuse.o [8]
rtw_forwarding_set      0x10033ff9    0x22  Code  Lc  freertos_ioctl.o [8]
rtw_free_all_stainfo    0x1002cba9    0x60  Code  Gb  rtw_sta_mgt.o [8]
rtw_free_assoc_resources
                        0x10021135    0xac  Code  Gb  rtw_mlme.o [8]
rtw_free_buf_pending_queue
                        0x1001f5b7     0x4  Code  Gb  rtw_recv.o [8]
rtw_free_cmd_obj        0x100277e9    0x2c  Code  Gb  rtw_cmd.o [8]
rtw_free_cmd_priv       0x1002776b     0x2  Code  Gb  rtw_cmd.o [8]
rtw_free_drv_sw         0x10026469    0x78  Code  Gb  rtw_intfs.o [8]
rtw_free_evt_priv       0x10027769     0x2  Code  Gb  rtw_cmd.o [8]
rtw_free_hwxmits        0x1002dc75    0x16  Code  Gb  rtw_xmit.o [8]
rtw_free_mlme_ie_data   0x10020acd    0x18  Code  Lc  rtw_mlme.o [8]
rtw_free_mlme_priv      0x10020d09     0x2  Code  Gb  rtw_mlme.o [8]
rtw_free_mlme_priv_ie_data
                        0x10020ae5    0x36  Code  Gb  rtw_mlme.o [8]
rtw_free_netdev         0x10037b2d    0x20  Code  Gb  netdev.o [8]
rtw_free_network_nolock
                        0x10020d0d     0x2  Code  Gb  rtw_mlme.o [8]
rtw_free_network_queue  0x10020d0f     0x2  Code  Gb  rtw_mlme.o [8]
rtw_free_pwrctrl_priv   0x1001ed85    0x14  Code  Gb  rtw_pwrctrl.o [8]
rtw_free_recvframe      0x1001f497    0x80  Code  Gb  rtw_recv.o [8]
rtw_free_sec_priv       0x1002c6d7    0x1e  Code  Gb  rtw_security.o [8]
rtw_free_sema           0x100166fd     0xe  Code  Gb  osdep_service.o [2]
rtw_free_stainfo        0x1002ca09   0x186  Code  Gb  rtw_sta_mgt.o [8]
rtw_free_uc_swdec_pending_queue
                        0x1001f585    0x24  Code  Gb  rtw_recv.o [8]
rtw_free_xmitbuf        0x1002da1f    0x5e  Code  Gb  rtw_xmit.o [8]
rtw_free_xmitbuf_ext    0x1002d98b    0x30  Code  Gb  rtw_xmit.o [8]
rtw_free_xmitframe      0x1002dad9    0x52  Code  Gb  rtw_xmit.o [8]
rtw_free_xmitframe_queue
                        0x1002db2b    0x34  Code  Gb  rtw_xmit.o [8]
rtw_generate_bcn_ie     0x1002bf07   0x272  Code  Gb  rtw_ap.o [8]
rtw_getFreeHeapSize     0x1001699d    0x10  Code  Gb  osdep_service.o [2]
rtw_get_bcmc_stainfo    0x1002cc95    0x10  Code  Gb  rtw_sta_mgt.o [8]
rtw_get_bcn_info        0x10038703    0xc8  Code  Gb  rtw_ieee80211.o [8]
rtw_get_beacon_interval_from_ie
                        0x10020ced     0x4  Code  Gb  rtw_mlme.o [8]
rtw_get_bit_value_from_ieee_value
                        0x00013449    0x2c  Code  Gb  rom.o [11]
rtw_get_capability      0x10020cd9    0x14  Code  Gb  rtw_mlme.o [8]
rtw_get_capability_from_ie
                        0x10020cd5     0x4  Code  Gb  rtw_mlme.o [8]
rtw_get_cipher_info     0x1003867d    0x6a  Code  Gb  rtw_ieee80211.o [8]
rtw_get_current_time    0x10016853    0x10  Code  Gb  osdep_service.o [2]
rtw_get_ff_hwaddr       0x1002dc9d    0x42  Code  Gb  rtw_xmit.o [8]
rtw_get_ie              0x0001355d    0x32  Code  Gb  rom.o [11]
rtw_get_passing_time_ms
                        0x100168a3    0x10  Code  Gb  osdep_service.o [2]
rtw_get_random_bytes    0x1001698d    0x10  Code  Gb  osdep_service.o [2]
rtw_get_rateset_len     0x00013611    0x1c  Code  Gb  rom.o [11]
rtw_get_sec_ie          0x00013965    0xb0  Code  Gb  rom.o [11]
rtw_get_sta_pending     0x1002db73    0x36  Code  Gb  rtw_xmit.o [8]
rtw_get_stainfo         0x1002cc09    0x6c  Code  Gb  rtw_sta_mgt.o [8]
rtw_get_tx_power        0x10034a2d    0xf0  Code  Lc  freertos_ioctl.o [8]
rtw_get_wpa2_cipher_suite
                        0x00013769    0x68  Code  Gb  rom.o [11]
rtw_get_wpa2_ie         0x000136c9    0x36  Code  Gb  rom.o [11]
rtw_get_wpa_cipher_suite
                        0x00013701    0x68  Code  Gb  rom.o [11]
rtw_get_wpa_ie          0x0001362d    0x9c  Code  Gb  rom.o [11]
rtw_get_wps_attr        0x00013a99    0xb0  Code  Gb  rom.o [11]
rtw_get_wps_attr_content
                        0x00013b49    0x48  Code  Gb  rom.o [11]
rtw_get_wps_ie          0x00013a15    0x84  Code  Gb  rom.o [11]
rtw_hal_add_ra_tid      0x1001f1b5    0x10  Code  Gb  hal_intf.o [8]
rtw_hal_chip_configure  0x1001ef29    0x16  Code  Gb  hal_intf.o [8]
rtw_hal_clone_data      0x1001f1c5     0xe  Code  Gb  hal_intf.o [8]
rtw_hal_def_value_init  0x1001ef6b    0x16  Code  Gb  hal_intf.o [8]
rtw_hal_deinit          0x1001f01f    0x1a  Code  Gb  hal_intf.o [8]
rtw_hal_disable_interrupt
                        0x1001f0cd    0x20  Code  Gb  hal_intf.o [8]
rtw_hal_dm_deinit       0x1001efad    0x16  Code  Gb  hal_intf.o [8]
rtw_hal_dm_init         0x1001ef97    0x16  Code  Gb  hal_intf.o [8]
rtw_hal_dm_watchdog     0x1001f2d1     0xe  Code  Gb  hal_intf.o [8]
rtw_hal_enable_interrupt
                        0x1001f0ad    0x20  Code  Gb  hal_intf.o [8]
rtw_hal_free_data       0x1001ef81    0x16  Code  Gb  hal_intf.o [8]
rtw_hal_free_recv_priv  0x1001f177     0xe  Code  Gb  hal_intf.o [8]
rtw_hal_free_xmit_priv  0x1001f159     0xe  Code  Gb  hal_intf.o [8]
rtw_hal_get_def_var     0x1001f077    0x16  Code  Gb  hal_intf.o [8]
rtw_hal_get_hwreg       0x1001f04d    0x14  Code  Gb  hal_intf.o [8]
rtw_hal_get_odm_var     0x1001f09d    0x10  Code  Gb  hal_intf.o [8]
rtw_hal_inirp_deinit    0x1001f101    0x10  Code  Gb  hal_intf.o [8]
rtw_hal_inirp_init      0x1001f0ed    0x14  Code  Gb  hal_intf.o [8]
rtw_hal_init            0x1001efd9    0x46  Code  Gb  hal_intf.o [8]
rtw_hal_init_recv_priv  0x1001f167    0x10  Code  Gb  hal_intf.o [8]
rtw_hal_init_xmit_priv  0x1001f149    0x10  Code  Gb  hal_intf.o [8]
rtw_hal_interrupt_handler
                        0x1001f28b    0x10  Code  Gb  hal_intf.o [8]
rtw_hal_irp_reset       0x1001f111     0xe  Code  Gb  hal_intf.o [8]
rtw_hal_mgnt_xmit       0x1001f12f    0x1a  Code  Gb  hal_intf.o [8]
rtw_hal_notch_filter    0x1001f2df     0xe  Code  Gb  hal_intf.o [8]
rtw_hal_read_bbreg      0x1001f1ef    0x3e  Code  Gb  hal_intf.o [8]
rtw_hal_read_chip_info  0x1001ef3f    0x16  Code  Gb  hal_intf.o [8]
rtw_hal_read_chip_version
                        0x1001ef55    0x16  Code  Gb  hal_intf.o [8]
rtw_hal_read_rfreg      0x1001f261    0x16  Code  Gb  hal_intf.o [8]
rtw_hal_reset_security_engine
                        0x1001f2ed     0xe  Code  Gb  hal_intf.o [8]
rtw_hal_set_bwmode      0x1001f29b    0x14  Code  Gb  hal_intf.o [8]
rtw_hal_set_chan        0x1001f2af     0xe  Code  Gb  hal_intf.o [8]
rtw_hal_set_chnl_bw     0x1001f2bd    0x14  Code  Gb  hal_intf.o [8]
rtw_hal_set_def_var     0x1001f061    0x16  Code  Gb  hal_intf.o [8]
rtw_hal_set_hwreg       0x1001f039    0x14  Code  Gb  hal_intf.o [8]
rtw_hal_set_odm_var     0x1001f08d    0x10  Code  Gb  hal_intf.o [8]
rtw_hal_start_thread    0x1001f1d3     0xe  Code  Gb  hal_intf.o [8]
rtw_hal_stop_thread     0x1001f1e1     0xe  Code  Gb  hal_intf.o [8]
rtw_hal_sw_led_deinit   0x1001efc3    0x16  Code  Gb  hal_intf.o [8]
rtw_hal_update_ra_mask  0x1001f185    0x30  Code  Gb  hal_intf.o [8]
rtw_hal_write_bbreg     0x1001f22d    0x34  Code  Gb  hal_intf.o [8]
rtw_hal_write_rfreg     0x1001f277    0x14  Code  Gb  hal_intf.o [8]
rtw_hal_xmit            0x1001f11f    0x10  Code  Gb  hal_intf.o [8]
rtw_ht_operation_update
                        0x1002b9ed    0x9c  Code  Lc  rtw_ap.o [8]
rtw_ieee802_11_parse_elems
                        0x00013b91   0x20a  Code  Gb  rom.o [11]
rtw_if1_deinit          0x10024657    0x86  Code  Lc  freertos_intfs.o [8]
rtw_if1_init            0x10024545   0x112  Code  Lc  freertos_intfs.o [8]
rtw_if_up               0x10020caf    0x26  Code  Gb  rtw_mlme.o [8]
rtw_indicate_connect    0x10021219    0x1c  Code  Gb  rtw_mlme.o [8]
rtw_indicate_disconnect
                        0x10021235    0x24  Code  Gb  rtw_mlme.o [8]
rtw_indicate_scan_done  0x10021259     0x4  Code  Gb  rtw_mlme.o [8]
rtw_indicate_sta_assoc  0x10033a19    0x52  Code  Gb  freertos_ioctl.o [8]
rtw_indicate_sta_disassoc
                        0x10033a8b    0x4e  Code  Gb  freertos_ioctl.o [8]
rtw_indicate_wx_assoc_event
                        0x10033af1    0x1c  Code  Gb  freertos_ioctl.o [8]
rtw_indicate_wx_disassoc_event
                        0x10033b19    0x18  Code  Gb  freertos_ioctl.o [8]
rtw_init_bcmc_stainfo   0x1002cc7b    0x1a  Code  Gb  rtw_sta_mgt.o [8]
rtw_init_cmd_priv       0x1002775d     0x2  Code  Gb  rtw_cmd.o [8]
rtw_init_default_value  0x1002638f    0x6c  Code  Gb  rtw_intfs.o [8]
rtw_init_drv_sw         0x10026539    0x7c  Code  Gb  rtw_intfs.o [8]
rtw_init_evt_priv       0x10027767     0x2  Code  Gb  rtw_cmd.o [8]
rtw_init_hwxmits        0x1002dc8b    0x12  Code  Gb  rtw_xmit.o [8]
rtw_init_io_priv        0x1002405d    0x14  Code  Gb  freertos_intfs.o [8]
rtw_init_listhead       0x100166c7     0x2  Code  Gb  osdep_service.o [2]
rtw_init_mlme_priv      0x10020cf1    0x18  Code  Gb  rtw_mlme.o [8]
rtw_init_mlme_timer     0x100208f9    0x4c  Code  Gb  rtw_mlme.o [8]
rtw_init_netdev         0x10024007    0x52  Code  Gb  freertos_intfs.o [8]
rtw_init_netdev_name    0x10023ffd     0xa  Code  Gb  freertos_intfs.o [8]
rtw_init_pwrctrl_priv   0x1001ecbd    0xb4  Code  Gb  rtw_pwrctrl.o [8]
rtw_init_queue          0x100167a5    0x12  Code  Gb  osdep_service.o [2]
rtw_init_sec_priv       0x1002c671    0x66  Code  Gb  rtw_security.o [8]
rtw_init_sema           0x100166ef     0xe  Code  Gb  osdep_service.o [2]
rtw_init_timer          0x100168eb    0x14  Code  Gb  osdep_service.o [2]
rtw_init_xqueue         0x100167fd    0x16  Code  Gb  osdep_service.o [2]
rtw_initmac             0x100557b0     0x4  Data  Gb  freertos_intfs.o [8]
rtw_interrupt_thread    0x1004acdd    0x5c  Code  Gb  freertos_isr.o [8]
rtw_ioctl               0x100357f9   0x410  Code  Gb  freertos_ioctl.o [8]
rtw_ioctl_wext_private  0x100353e5   0x3cc  Code  Lc  freertos_ioctl.o [8]
rtw_is_cckrates_included
                        0x00013475    0x3e  Code  Gb  rom.o [11]
rtw_is_cckratesonly_included
                        0x000134b5    0x28  Code  Gb  rom.o [11]
rtw_is_channel_set_contains_channel
                        0x1002e379    0x24  Code  Gb  rtw_mlme_ext.o [8]
rtw_is_list_empty       0x100166c9     0xe  Code  Gb  osdep_service.o [2]
rtw_is_same_ibss        0x10020d13    0x1c  Code  Gb  rtw_mlme.o [8]
rtw_join_status         0x1004dd08     0x4  Data  Gb  wifi_conf.o [2]
rtw_join_timeout_handler
                        0x10020847    0x36  Code  Gb  rtw_mlme.o [8]
rtw_joinbss_cmd         0x10027a1b   0x1d8  Code  Gb  rtw_cmd.o [8]
rtw_joinbss_cmd_callback
                        0x100281cf     0xe  Code  Gb  rtw_cmd.o [8]
rtw_joinbss_event_callback
                        0x100214a7    0x1e  Code  Gb  rtw_mlme.o [8]
rtw_joinbss_event_prehandle
                        0x100213af    0xf8  Code  Gb  rtw_mlme.o [8]
rtw_joinbss_reset       0x10021a47    0x10  Code  Gb  rtw_mlme.o [8]
rtw_joinbss_update_network
                        0x10021323    0x8c  Code  Lc  rtw_mlme.o [8]
rtw_joinbss_update_stainfo
                        0x1002125d    0xc6  Code  Lc  rtw_mlme.o [8]
rtw_list_delete         0x100166e1     0x8  Code  Gb  osdep_service.o [2]
rtw_list_insert_head    0x100166d7     0x4  Code  Gb  osdep_service.o [2]
rtw_list_insert_tail    0x100166db     0x6  Code  Gb  osdep_service.o [2]
rtw_lps_ctrl_wk_cmd     0x10027fc7    0x3a  Code  Gb  rtw_cmd.o [8]
rtw_macaddr_cfg         0x100385d9    0xa0  Code  Gb  rtw_ieee80211.o [8]
rtw_make_wlanhdr        0x1002d51f   0x1e8  Code  Gb  rtw_xmit.o [8]
rtw_malloc              0x10016673     0xa  Code  Gb  osdep_service.o [2]
rtw_mdelay_os           0x100168cf     0xe  Code  Gb  osdep_service.o [2]
rtw_memcmp              0x1001669d    0x16  Code  Gb  osdep_service.o [2]
rtw_memcpy              0x10016689    0x14  Code  Gb  osdep_service.o [2]
rtw_memset              0x100166b3    0x14  Code  Gb  osdep_service.o [2]
rtw_mfree               0x10016687     0x2  Code  Gb  osdep_service.o [2]
rtw_mfree_mlme_priv_lock
                        0x10020ab1    0x1c  Code  Gb  rtw_mlme.o [8]
rtw_mfree_recv_priv_lock
                        0x1001f3ef    0x34  Code  Gb  rtw_recv.o [8]
rtw_mfree_sta_priv_lock
                        0x1002c8cf    0x30  Code  Gb  rtw_sta_mgt.o [8]
rtw_mfree_stainfo       0x1002c8a1    0x2e  Code  Gb  rtw_sta_mgt.o [8]
rtw_mfree_xmit_priv_lock
                        0x1002cee1    0x4c  Code  Gb  rtw_xmit.o [8]
rtw_modular64           0x10016977    0x16  Code  Gb  osdep_service.o [2]
rtw_ms_to_systime       0x10016883    0x10  Code  Gb  osdep_service.o [2]
rtw_msleep_os           0x100168b3     0xe  Code  Gb  osdep_service.o [2]
rtw_mutex_free          0x10016759     0xe  Code  Gb  osdep_service.o [2]
rtw_mutex_init          0x1001674b     0xe  Code  Gb  osdep_service.o [2]
rtw_net_get_stats       0x10023fbd    0x40  Code  Lc  freertos_intfs.o [8]
rtw_netif_queue_stopped
                        0x100169ad     0x4  Code  Gb  osdep_service.o [2]
rtw_netif_start_queue   0x100169b3     0x2  Code  Gb  osdep_service.o [2]
rtw_netif_stop_queue    0x100169b5     0x2  Code  Gb  osdep_service.o [2]
rtw_netif_wake_queue    0x100169b1     0x2  Code  Gb  osdep_service.o [2]
rtw_observequeue_cmd    0x100277e7     0x2  Code  Gb  rtw_cmd.o [8]
rtw_os_indicate_connect
                        0x10023d87     0x4  Code  Gb  freertos_intfs.o [8]
rtw_os_indicate_disconnect
                        0x10023e77    0x48  Code  Gb  freertos_intfs.o [8]
rtw_os_indicate_scan_done
                        0x10023d8b     0x4  Code  Gb  freertos_intfs.o [8]
rtw_os_pkt_complete     0x10035fcb     0x8  Code  Gb  freertos_xmit.o [8]
rtw_os_recv_resource_alloc
                        0x1002c1d3     0xa  Code  Gb  freertos_recv.o [8]
rtw_os_recv_resource_free
                        0x1002c1dd     0x2  Code  Gb  freertos_recv.o [8]
rtw_os_recv_resource_init
                        0x1002c1cf     0x4  Code  Gb  freertos_recv.o [8]
rtw_os_xmit_complete    0x10035fd3    0x12  Code  Gb  freertos_xmit.o [8]
rtw_os_xmit_resource_alloc
                        0x10035fbf     0xa  Code  Gb  freertos_xmit.o [8]
rtw_os_xmit_resource_free
                        0x10035fc9     0x2  Code  Gb  freertos_xmit.o [8]
rtw_os_xmit_schedule    0x10035fe5    0x3a  Code  Gb  freertos_xmit.o [8]
rtw_parse_wpa2_ie       0x000138ad    0xb8  Code  Gb  rom.o [11]
rtw_parse_wpa_ie        0x000137d1    0xdc  Code  Gb  rom.o [11]
rtw_pm_set              0x10034983    0xaa  Code  Lc  freertos_ioctl.o [8]
rtw_pm_set_ips          0x1001eea3    0x3c  Code  Gb  rtw_pwrctrl.o [8]
rtw_pm_set_lps          0x1001ee5f    0x44  Code  Gb  rtw_pwrctrl.o [8]
rtw_pm_set_lps_dtim     0x1001eef9     0xa  Code  Gb  rtw_pwrctrl.o [8]
rtw_pm_set_tdma_param   0x1001eedf    0x1a  Code  Gb  rtw_pwrctrl.o [8]
rtw_pop_from_xqueue     0x10016827    0x14  Code  Gb  osdep_service.o [2]
rtw_port_switch_chk     0x1003194d    0x8e  Code  Gb  rtw_mlme_ext.o [8]
rtw_private_args        0x10035d84   0x1e0  Data  Lc  freertos_ioctl.o [8]
rtw_private_handler     0x1004e0ac    0x38  Data  Lc  freertos_ioctl.o [8]
rtw_ps_cmd              0x1002802b    0x44  Code  Gb  rtw_cmd.o [8]
rtw_ps_processor        0x1001ea59    0x58  Code  Gb  rtw_pwrctrl.o [8]
rtw_push_to_xqueue      0x10016813    0x14  Code  Gb  osdep_service.o [2]
rtw_put_snap            0x1002d849    0x3a  Code  Gb  rtw_xmit.o [8]
rtw_pwr_unassociated_idle
                        0x1001e9ed    0x6c  Code  Gb  rtw_pwrctrl.o [8]
rtw_queue_empty         0x100167b7     0x2  Code  Gb  osdep_service.o [2]
rtw_ratemask_read8      0x1003ac47     0xe  Code  Gb  rtl8195a_dm.o [8]
rtw_ratemask_write8     0x1003ac5f     0xe  Code  Gb  rtl8195a_dm.o [8]
rtw_read16              0x1002766d     0xc  Code  Gb  rtw_io.o [8]
rtw_read32              0x10027679     0xc  Code  Gb  rtw_io.o [8]
rtw_read8               0x10027661     0xc  Code  Gb  rtw_io.o [8]
rtw_recv_entry          0x1002041b    0x2e  Code  Gb  rtw_recv.o [8]
rtw_recv_indicatepkt    0x1002c1df   0x1c8  Code  Gb  freertos_recv.o [8]
rtw_recv_tasklet        0x10020449    0x48  Code  Gb  rtw_recv.o [8]
rtw_release_wakelock    0x100169c7     0xe  Code  Gb  osdep_service.o [2]
rtw_remainder_len       0x10035f6d     0xc  Code  Gb  freertos_xmit.o [8]
rtw_reset_drv_sw        0x100264e1    0x58  Code  Gb  rtw_intfs.o [8]
rtw_reset_securitypriv  0x10023d8f    0xe8  Code  Gb  freertos_intfs.o [8]
rtw_restruct_sec_ie     0x100219bb    0x84  Code  Gb  rtw_mlme.o [8]
rtw_restruct_wmm_ie     0x1002195f    0x5c  Code  Gb  rtw_mlme.o [8]
rtw_restructure_ht_ie   0x10021a57    0xd8  Code  Gb  rtw_mlme.o [8]
rtw_rfc1042_header      0x100204b0     0x8  Data  Gb  rtw_recv.o [8]
rtw_rpt_h_addr          0x1003abcb    0x44  Code  Gb  rtl8195a_dm.o [8]
rtw_scan_timeout_handler
                        0x100216a3    0x1a  Code  Gb  rtw_mlme.o [8]
rtw_sctx_done           0x1002e321     0x4  Code  Gb  rtw_xmit.o [8]
rtw_sctx_done_err       0x1002e315     0xc  Code  Gb  rtw_xmit.o [8]
rtw_sec_to_systime      0x10016893    0x10  Code  Gb  osdep_service.o [2]
rtw_seccalctkipmic      0x0001449d   0x106  Code  Gb  rom.o [11]
rtw_secgetmic           0x00014435    0x66  Code  Gb  rom.o [11]
rtw_secmicappend        0x00014419    0x1a  Code  Gb  rom.o [11]
rtw_secmicsetkey        0x000143d9    0x40  Code  Gb  rom.o [11]
rtw_select_and_join_from_scanned_queue
                        0x1002178f    0xc6  Code  Gb  rtw_mlme.o [8]
rtw_set_802_11_add_wep  0x10036561    0x62  Code  Gb  rtw_ioctl_set.o [8]
rtw_set_802_11_authentication_mode
                        0x1003653f    0x22  Code  Gb  rtw_ioctl_set.o [8]
rtw_set_802_11_bssid    0x10036123   0x1a0  Code  Gb  rtw_ioctl_set.o [8]
rtw_set_802_11_bssid_list_scan
                        0x100364d7    0x62  Code  Gb  rtw_ioctl_set.o [8]
rtw_set_802_11_infrastructure_mode
                        0x1003641d    0xba  Code  Gb  rtw_ioctl_set.o [8]
rtw_set_802_11_ssid     0x100362c3   0x13e  Code  Gb  rtw_ioctl_set.o [8]
rtw_set_auth            0x10021855    0x4e  Code  Gb  rtw_mlme.o [8]
rtw_set_channel_plan_cmd_callback
                        0x10027e95    0x10  Code  Gb  rtw_cmd.o [8]
rtw_set_chplan_cmd      0x10027e0d    0x76  Code  Gb  rtw_cmd.o [8]
rtw_set_fixed_ie        0x0001350d    0x20  Code  Gb  rom.o [11]
rtw_set_ie              0x0001352d    0x2e  Code  Gb  rom.o [11]
rtw_set_key             0x100218a3    0xbc  Code  Gb  rtw_mlme.o [8]
rtw_set_ps_mode         0x1001eb39    0x6a  Code  Gb  rtw_pwrctrl.o [8]
rtw_set_supported_rate  0x00013591    0x80  Code  Gb  rom.o [11]
rtw_set_timer           0x100168ff     0xe  Code  Gb  osdep_service.o [2]
rtw_set_tx_chksum_offload
                        0x10035fbd     0x2  Code  Gb  freertos_xmit.o [8]
rtw_set_wpa_ie          0x10033cd9    0xfe  Code  Gb  freertos_ioctl.o [8]
rtw_setstaKey_cmdrsp_callback
                        0x100281f1    0x12  Code  Gb  rtw_cmd.o [8]
rtw_setstakey_cmd       0x10027c3b    0xe6  Code  Gb  rtw_cmd.o [8]
rtw_sitesurvey_cmd      0x10027943    0xd8  Code  Gb  rtw_cmd.o [8]
rtw_spin_lock           0x100167e1     0xe  Code  Gb  osdep_service.o [2]
rtw_spin_unlock         0x100167ef     0xe  Code  Gb  osdep_service.o [2]
rtw_spinlock_free       0x100167d3     0xe  Code  Gb  osdep_service.o [2]
rtw_spinlock_init       0x100167c5     0xe  Code  Gb  osdep_service.o [2]
rtw_sta_flush           0x1002bd8f    0x82  Code  Gb  rtw_ap.o [8]
rtw_stadel_event_callback
                        0x1002157b    0x9a  Code  Gb  rtw_mlme.o [8]
rtw_start_drv_threads   0x100265c3    0x9c  Code  Gb  rtw_intfs.o [8]
rtw_stassoc_event_callback
                        0x10021541    0x30  Code  Gb  rtw_mlme.o [8]
rtw_stassoc_hw_rpt      0x10021511    0x30  Code  Gb  rtw_mlme.o [8]
rtw_stop_drv_threads    0x10026671    0x36  Code  Gb  rtw_intfs.o [8]
rtw_survey_cmd_callback
                        0x10028191    0x10  Code  Gb  rtw_cmd.o [8]
rtw_survey_event_callback
                        0x10020fa3    0x82  Code  Gb  rtw_mlme.o [8]
rtw_surveydone_event_callback
                        0x10021025    0xdc  Code  Gb  rtw_mlme.o [8]
rtw_systime_to_ms       0x10016863    0x10  Code  Gb  osdep_service.o [2]
rtw_systime_to_sec      0x10016873    0x10  Code  Gb  osdep_service.o [2]
rtw_thread_enter        0x10016a6d     0xe  Code  Gb  osdep_service.o [2]
rtw_thread_exit         0x10016a7b     0xe  Code  Gb  osdep_service.o [2]
rtw_timerChangePeriod   0x10016a57    0x16  Code  Gb  osdep_service.o [2]
rtw_timerCreate         0x10016a0f    0x18  Code  Gb  osdep_service.o [2]
rtw_timerDelete         0x10016a27    0x10  Code  Gb  osdep_service.o [2]
rtw_timerIsTimerActive  0x10016a37    0x10  Code  Gb  osdep_service.o [2]
rtw_timerStop           0x10016a47    0x10  Code  Gb  osdep_service.o [2]
rtw_tkip_decrypt        0x1002c4fd    0x72  Code  Gb  rtw_security.o [8]
rtw_tkip_encrypt        0x1002c481    0x7c  Code  Gb  rtw_security.o [8]
rtw_txframes_pending    0x1002d735    0x36  Code  Gb  rtw_xmit.o [8]
rtw_txframes_sta_ac_pending
                        0x1002d76b    0x2c  Code  Gb  rtw_xmit.o [8]
rtw_txframes_update_attrib_vcs_info
                        0x1002d797    0xb2  Code  Gb  rtw_xmit.o [8]
rtw_txrpt_read8         0x1003ac0f     0xc  Code  Gb  rtl8195a_dm.o [8]
rtw_txrpt_write8        0x1003ac25     0xc  Code  Gb  rtl8195a_dm.o [8]
rtw_udelay_os           0x100168dd     0xe  Code  Gb  osdep_service.o [2]
rtw_up_sema             0x1001670b     0xe  Code  Gb  osdep_service.o [2]
rtw_up_sema_from_isr    0x10016719     0xe  Code  Gb  osdep_service.o [2]
rtw_update_ht_cap       0x10021b2f   0x106  Code  Gb  rtw_mlme.o [8]
rtw_update_protection   0x1002d883    0x40  Code  Gb  rtw_xmit.o [8]
rtw_update_scanned_network
                        0x10020e49   0x114  Code  Gb  rtw_mlme.o [8]
rtw_usleep_os           0x100168c1     0xe  Code  Gb  osdep_service.o [2]
rtw_vmfree              0x10016671     0x2  Code  Gb  osdep_service.o [2]
rtw_wakeup_task         0x10016a01     0xe  Code  Gb  osdep_service.o [2]
rtw_wep_decrypt         0x1002c437    0x4a  Code  Gb  rtw_security.o [8]
rtw_wep_encrypt         0x1002c3e9    0x4e  Code  Gb  rtw_security.o [8]
rtw_write16             0x10027695    0x10  Code  Gb  rtw_io.o [8]
rtw_write32             0x100276a5    0x10  Code  Gb  rtw_io.o [8]
rtw_write8              0x10027685    0x10  Code  Gb  rtw_io.o [8]
rtw_wx_del_custome_ie   0x10033fb3    0x46  Code  Lc  freertos_ioctl.o [8]
rtw_wx_get_autoreconnect
                        0x10033e9d     0xe  Code  Lc  freertos_ioctl.o [8]
rtw_wx_get_passphrase   0x100345bf    0x48  Code  Gb  freertos_ioctl.o [8]
rtw_wx_read32           0x1003470d    0x94  Code  Lc  freertos_ioctl.o [8]
rtw_wx_set_ap_essid     0x1003460d   0x100  Code  Gb  freertos_ioctl.o [8]
rtw_wx_set_auth         0x100343a5    0xcc  Code  Lc  freertos_ioctl.o [8]
rtw_wx_set_autoreconnect
                        0x10033e6d    0x30  Code  Lc  freertos_ioctl.o [8]
rtw_wx_set_custome_ie   0x10033eab    0x9c  Code  Lc  freertos_ioctl.o [8]
rtw_wx_set_enc_ext      0x10034471    0xc6  Code  Lc  freertos_ioctl.o [8]
rtw_wx_set_essid        0x10034269   0x11c  Code  Lc  freertos_ioctl.o [8]
rtw_wx_set_pscan_freq   0x10033de1    0x8c  Code  Lc  freertos_ioctl.o [8]
rtw_wx_set_scan         0x10034147    0xf8  Code  Lc  freertos_ioctl.o [8]
rtw_wx_set_wap          0x1003401b   0x110  Code  Lc  freertos_ioctl.o [8]
rtw_wx_update_custome_ie
                        0x10033f47    0x6c  Code  Lc  freertos_ioctl.o [8]
rtw_wx_write32          0x100347c1    0x64  Code  Lc  freertos_ioctl.o [8]
rtw_xmit                0x1002e2a7    0x6e  Code  Gb  rtw_xmit.o [8]
rtw_xmit_classifier     0x1002dba9    0x76  Code  Gb  rtw_xmit.o [8]
rtw_xmit_data           0x1002e2a3     0x4  Code  Gb  rtw_xmit.o [8]
rtw_xmit_entry          0x1003601f    0x48  Code  Gb  freertos_xmit.o [8]
rtw_xmit_mgnt           0x1002e29f     0x4  Code  Gb  rtw_xmit.o [8]
rtw_xmit_tasklet        0x1002e259    0x46  Code  Gb  rtw_xmit.o [8]
rtw_xmitframe_coalesce  0x1003d6c1   0x1ee  Code  Gb  rtl8195a_xmit.o [8]
rtw_xmitframe_enqueue   0x1002db67     0xc  Code  Gb  rtw_xmit.o [8]
rtw_zmalloc             0x1001667d     0xa  Code  Gb  osdep_service.o [2]
rtw_zvmalloc            0x10016653     0x8  Code  Gb  osdep_service.o [2]
rx_ring_pool            0x10055b34  0x20e0  Data  Lc  lxbus_ops.o [8]
s_mp_add                0x0001690d   0x116  Code  Lc  rom.o [11]
s_mp_exptmod.constprop.13
                        0x00017735   0x400  Code  Lc  rom.o [11]
s_mp_mul_digs           0x000172fd   0x12c  Code  Lc  rom.o [11]
s_mp_sqr.isra.5         0x000166ad   0x124  Code  Lc  rom.o [11]
s_mp_sub.isra.10        0x00016df1    0xf2  Code  Lc  rom.o [11]
s_nextthread            0x10053a98     0x2  Data  Lc  sys_arch.o [2]
s_timeoutlist           0x10053a9c    0x30  Data  Lc  sys_arch.o [2]
save_and_cli            0x100237fd     0x4  Code  Gb  freertos_service.o [2]
sc_api_fun              0x1004df28    0x2c  Data  Gb  wifi_simple_config_parser.o [8]
sc_device_name          0x10017c2c    0x18  Data  Lc  wifi_simple_config_parser.o [8]
scan_result_handler_ptr
                        0x10053c2c    0x24  Data  Lc  wifi_conf.o [2]
search_max_mac_id       0x100214c5    0x4c  Code  Gb  rtw_mlme.o [8]
select_cb_ctr           0x10053a94     0x4  Data  Lc  sockets.o [2]
select_cb_list          0x10053a90     0x4  Data  Lc  sockets.o [2]
sent_tcp                0x1001bccf    0x4e  Code  Lc  api_msg.o [2]
seqno                   0x10053bd4     0x4  Data  Lc  tcp_in.o [2]
setIqkMatrix_8195A      0x10041231    0xcc  Code  Gb  HalPhyRf_8195A.o [8]
set_channel_bwmode      0x10026a6d    0x4e  Code  Gb  rtw_wlan_util.o [8]
set_chplan_hdl          0x1003285f    0x1c  Code  Gb  rtw_mlme_ext.o [8]
set_fwstate             0x10020823    0x12  Code  Lc  rtw_mlme.o [8]
set_fwstate             0x100276bf    0x12  Code  Lc  rtw_cmd.o [8]
set_fwstate             0x10036073    0x12  Code  Lc  rtw_ioctl_set.o [8]
set_opmode              0x100269d7    0x36  Code  Gb  rtw_wlan_util.o [8]
set_qos                 0x1002d001    0x52  Code  Lc  rtw_xmit.o [8]
set_sta_rate            0x10027367     0x2  Code  Gb  rtw_wlan_util.o [8]
set_stakey_hdl          0x1003238d    0xf0  Code  Gb  rtw_mlme_ext.o [8]
set_tx_beacon_cmd       0x10032481    0x66  Code  Gb  rtw_mlme_ext.o [8]
setauth_hdl             0x1003232b     0xe  Code  Gb  rtw_mlme_ext.o [8]
setkey_hdl              0x10032339    0x50  Code  Gb  rtw_mlme_ext.o [8]
setopmode_hdl           0x10032013    0x3c  Code  Gb  rtw_mlme_ext.o [8]
setup_tcp               0x1001bdc5    0x3a  Code  Lc  api_msg.o [2]
sha256_compress         0x00017ed9   0x130  Code  Lc  rom.o [11]
sha512_padding          0x00036638    0x80  Data  Lc  rom.o [11]
sha512_process          0x0001bfc1   0xe2a  Code  Lc  rom.o [11]
simple_config_callback  0x10010909    0x2e  Code  Gb  wifi_simple_config.o [2]
simple_config_cmd_start_time
                        0x10053e5c     0x4  Data  Lc  wifi_simple_config.o [2]
simple_config_lib_deinit
                        0x10017069     0xc  Code  Gb  wifi_simple_config_parser.o [8]
simple_config_result    0x10053e50     0x4  Data  Gb  wifi_simple_config.o [2]
simple_config_status    0x1004df58     0x4  Data  Gb  wifi_simple_config_parser.o [8]
simple_config_test      0x10010a11   0x11e  Code  Gb  wifi_simple_config.o [2]
simple_strtol           0x0000f96d    0x18  Code  Gb  rom.o [11]
simple_strtoll          0x0000f945    0x1e  Code  Gb  rom.o [11]
simple_strtoul          0x0000f965     0x8  Code  Gb  rom.o [11]
simple_strtoull         0x0000f915    0x2e  Code  Gb  rom.o [11]
sinTable                0x0003e6fc   0x40c  Data  Lc  rom.o [11]
site_survey             0x10030cff   0x1f2  Code  Gb  rtw_mlme_ext.o [8]
sitesurvey_cmd_hdl      0x1003224b    0xe0  Code  Gb  rtw_mlme_ext.o [8]
skb_assign_buf          0x100206d5     0xc  Code  Gb  freertos_skbuff.o [8]
skb_copy                0x10020705    0x2c  Code  Gb  freertos_skbuff.o [8]
skb_data_pool           0x10057e98  0x3400  Data  Wk  freertos_skbuff.o [8]
skb_end_pointer         0x100206e1     0x4  Code  Gb  freertos_skbuff.o [8]
skb_fail_count          0x10055934     0x4  Data  Lc  freertos_skbuff.o [8]
skb_fail_get_and_rst    0x100204e3    0x16  Code  Gb  freertos_skbuff.o [8]
skb_fail_inc            0x100204cd    0x16  Code  Gb  freertos_skbuff.o [8]
skb_pool                0x10055938   0x1b8  Data  Lc  freertos_skbuff.o [8]
skb_pull                0x100206ed    0x18  Code  Gb  freertos_skbuff.o [8]
skb_put                 0x1002069d    0x2e  Code  Gb  freertos_skbuff.o [8]
skb_reserve             0x100206cb     0xa  Code  Gb  freertos_skbuff.o [8]
skb_set_tail_pointer    0x100206e5     0x2  Code  Gb  freertos_skbuff.o [8]
skbbuf_used_num         0x10055af8     0x4  Data  Gb  freertos_skbuff.o [8]
skbdata_list            0x1005b298     0x8  Data  Lc  freertos_skbuff.o [8]
skbdata_used_num        0x10055b00     0x4  Data  Gb  freertos_skbuff.o [8]
skip_atoi               0x0000f831    0x38  Code  Gb  rom.o [11]
skip_spaces             0x0000f815    0x1a  Code  Gb  rom.o [11]
sleep_ex_selective      0x10026371    0x14  Code  Gb  sleep.o [2]
slide                   0x0001ed89    0xb2  Code  Lc  rom.o [11]
sockets                 0x10053a30    0x60  Data  Lc  sockets.o [2]
sqrtm1                  0x0003e2c8    0x28  Data  Lc  rom.o [11]
sscanf                  0x10013429    0x24  Code  Gb  sscanf.o [4]
sta2ap_data_frame       0x1001fbe7    0x94  Code  Gb  rtw_recv.o [8]
sta2sta_data_frame      0x1001f93d   0x146  Code  Gb  rtw_recv.o [8]
sta_info_update         0x1002be11    0x42  Code  Gb  rtw_ap.o [8]
start_ap_mode           0x1002be6f    0x3e  Code  Gb  rtw_ap.o [8]
start_bss_network       0x1002b1c7   0x2cc  Code  Lc  rtw_ap.o [8]
start_clnt_assoc        0x10031235    0x28  Code  Gb  rtw_mlme_ext.o [8]
start_clnt_auth         0x100311c7    0x68  Code  Gb  rtw_mlme_ext.o [8]
start_clnt_join         0x100310f5    0xd2  Code  Gb  rtw_mlme_ext.o [8]
start_log_service       0x10046f59    0x3a  Code  Gb  log_service.o [2]
stop_ap_mode            0x1002bead    0x44  Code  Gb  rtw_ap.o [8]
stop_sta_xmit           0x1002de9d    0xce  Code  Gb  rtw_xmit.o [8]
str_2char2num           0x00013d9d    0x1c  Code  Gb  rom.o [11]
strchr                  0x10024e75          Code  Gb  strchr.o [12]
strlen                  0x10026111          Code  Gb  strlen.o [12]
strtopsk                0x10034557    0x68  Code  Gb  freertos_ioctl.o [8]
struRemoteAddr          0x1004df04    0x10  Data  Gb  zc_hf_adpter.o [2]
support_short_GI        0x10027311    0x34  Code  Gb  rtw_wlan_util.o [8]
survey_timer_hdl        0x10031e87    0xd0  Code  Gb  rtw_mlme_ext.o [8]
swap_conditional        0x0001922d    0x30  Code  Lc  rom.o [11]
switch_power_saving_mode
                        0x1002a9c5    0x3e  Code  Gb  hal_com.o [8]
sync_pkt_index          0x1004df5c     0x4  Data  Lc  wifi_simple_config_parser.o [8]
sys_adc_calibration     0x10013663    0xa4  Code  Gb  sys_api.o [2]
sys_arch_mbox_fetch     0x10013f41    0x44  Code  Gb  sys_arch.o [2]
sys_arch_mbox_tryfetch  0x10013f8f    0x18  Code  Gb  sys_arch.o [2]
sys_arch_protect        0x100140bd     0xa  Code  Gb  sys_arch.o [2]
sys_arch_sem_wait       0x10013fe9    0x3a  Code  Gb  sys_arch.o [2]
sys_arch_unprotect      0x100140c7     0x4  Code  Gb  sys_arch.o [2]
sys_clear_ota_signature
                        0x10013465    0xa6  Code  Gb  sys_api.o [2]
sys_init                0x10014047    0x18  Code  Gb  sys_arch.o [2]
sys_log_uart_off        0x1001365f     0x4  Code  Gb  sys_api.o [2]
sys_log_uart_on         0x1001365b     0x4  Code  Gb  sys_api.o [2]
sys_mbox_free           0x10013f01    0x14  Code  Gb  sys_arch.o [2]
sys_mbox_new            0x10013ee5    0x1c  Code  Gb  sys_arch.o [2]
sys_mbox_post           0x10013f15    0x14  Code  Gb  sys_arch.o [2]
sys_mbox_set_invalid    0x10013faf     0x2  Code  Gb  sys_arch.o [2]
sys_mbox_trypost        0x10013f29    0x18  Code  Gb  sys_arch.o [2]
sys_mbox_valid          0x10013fad     0x2  Code  Gb  sys_arch.o [2]
sys_msleep              0x10018ff1    0x22  Code  Gb  sys.o [2]
sys_recover_ota_signature
                        0x10013523    0xec  Code  Gb  sys_api.o [2]
sys_reset               0x10013719    0x1e  Code  Gb  sys_api.o [2]
sys_sem_free            0x1001402f     0x6  Code  Gb  sys_arch.o [2]
sys_sem_new             0x10013fb1    0x38  Code  Gb  sys_arch.o [2]
sys_sem_set_invalid     0x1001403f     0x2  Code  Gb  sys_arch.o [2]
sys_sem_signal          0x10014023     0xc  Code  Gb  sys_arch.o [2]
sys_sem_valid           0x10014035     0x2  Code  Gb  sys_arch.o [2]
sys_thread_new          0x1001405f    0x58  Code  Gb  sys_arch.o [2]
sys_timeout             0x10022b59    0x52  Code  Gb  lwip_timers.o [2]
sys_timeouts_init       0x10022b07    0x46  Code  Gb  lwip_timers.o [2]
sys_timeouts_mbox_fetch
                        0x10022bef    0x5c  Code  Gb  lwip_timers.o [2]
sys_untimeout           0x10022bab    0x44  Code  Gb  lwip_timers.o [2]
tcm_heap                0x1fff5334  0xa000  Data  Gb  tcm_heap.o [2]
tcm_heap_allocmem       0x1001d673    0x50  Code  Gb  tcm_heap.o [2]
tcm_heap_calloc         0x1001d767    0x18  Code  Gb  tcm_heap.o [2]
tcm_heap_free           0x1001d781     0xe  Code  Gb  tcm_heap.o [2]
tcm_heap_freemem        0x1001d6c3    0x6e  Code  Gb  tcm_heap.o [2]
tcm_heap_init           0x1001d645    0x2e  Code  Gb  tcm_heap.o [2]
tcm_heap_malloc         0x1001d755    0x12  Code  Gb  tcm_heap.o [2]
tcm_lock                0x10053bb0     0x4  Data  Lc  tcm_heap.o [2]
tcp_abandon             0x10021e31    0x92  Code  Gb  tcp.o [2]
tcp_abort               0x10021ecb     0x4  Code  Gb  tcp.o [2]
tcp_accept              0x100226c7     0x4  Code  Gb  tcp.o [2]
tcp_accept_null         0x10021f5f     0x6  Code  Lc  tcp.o [2]
tcp_active_pcbs         0x1004dce8     0x4  Data  Gb  tcp.o [2]
tcp_active_pcbs_changed
                        0x1004dcd8     0x1  Data  Gb  tcp.o [2]
tcp_alloc               0x100225b5    0xf8  Code  Gb  tcp.o [2]
tcp_arg                 0x100226b1     0x4  Code  Gb  tcp.o [2]
tcp_backoff             0x100227c0    0x10  Data  Gb  tcp.o [2]
tcp_bind                0x10021ecf    0x90  Code  Gb  tcp.o [2]
tcp_bound_pcbs          0x1004dce0     0x4  Data  Gb  tcp.o [2]
tcp_close               0x10021dd7    0x16  Code  Gb  tcp.o [2]
tcp_close_shutdown      0x10021cdd    0xfa  Code  Lc  tcp.o [2]
tcp_connect             0x100220c7   0x12e  Code  Gb  tcp.o [2]
tcp_create_segment      0x100252db    0xa0  Code  Lc  tcp_out.o [2]
tcp_eff_send_mss        0x1002279d    0x22  Code  Gb  tcp.o [2]
tcp_enqueue_flags       0x10025703    0x9c  Code  Gb  tcp_out.o [2]
tcp_err                 0x100226c1     0x6  Code  Gb  tcp.o [2]
tcp_fasttmr             0x10022479    0x54  Code  Gb  tcp.o [2]
tcp_init                0x10021cbd     0x2  Code  Gb  tcp.o [2]
tcp_input               0x10036ab9   0x376  Code  Gb  tcp_in.o [2]
tcp_input_pcb           0x10053be0     0x4  Data  Gb  tcp_in.o [2]
tcp_keepalive           0x10025b6d    0x3a  Code  Gb  tcp_out.o [2]
tcp_listen_input        0x10036e2f    0xd4  Code  Lc  tcp_in.o [2]
tcp_listen_pcbs         0x1004dce4     0x4  Data  Gb  tcp.o [2]
tcp_listen_with_backlog
                        0x10021f65    0x82  Code  Gb  tcp.o [2]
tcp_new                 0x100226ad     0x4  Code  Gb  tcp.o [2]
tcp_new_port            0x1002207b    0x4c  Code  Lc  tcp.o [2]
tcp_next_iss            0x1002276f     0xc  Code  Gb  tcp.o [2]
tcp_oos_insert_segment  0x1003720b    0x60  Code  Lc  tcp_in.o [2]
tcp_output              0x100257f1   0x154  Code  Gb  tcp_out.o [2]
tcp_output_alloc_header
                        0x10025221    0x72  Code  Lc  tcp_out.o [2]
tcp_output_segment      0x1002595d    0xb8  Code  Lc  tcp_out.o [2]
tcp_parseopt            0x100378d7    0x74  Code  Lc  tcp_in.o [2]
tcp_pbuf_prealloc       0x1002537b    0x5c  Code  Lc  tcp_out.o [2]
tcp_pcb_lists           0x100227d8    0x10  Data  Gb  tcp.o [2]
tcp_pcb_purge           0x100226d5    0x48  Code  Gb  tcp.o [2]
tcp_pcb_remove          0x1002271d    0x52  Code  Gb  tcp.o [2]
tcp_persist_backoff     0x100227d0     0x8  Data  Gb  tcp.o [2]
tcp_poll                0x100226cb     0xa  Code  Gb  tcp.o [2]
tcp_port                0x10050824     0x2  Data  Lc  tcp.o [2]
tcp_process             0x10036f05   0x2ce  Code  Lc  tcp_in.o [2]
tcp_process_refused_data
                        0x100224cd    0x72  Code  Gb  tcp.o [2]
tcp_receive             0x10037275   0x5e2  Code  Lc  tcp_in.o [2]
tcp_recv                0x100226b5     0x6  Code  Gb  tcp.o [2]
tcp_recv_null           0x10022591    0x24  Code  Gb  tcp.o [2]
tcp_recved              0x10022039    0x42  Code  Gb  tcp.o [2]
tcp_rexmit              0x10025acd    0x4c  Code  Gb  tcp_out.o [2]
tcp_rexmit_fast         0x10025b21    0x4c  Code  Gb  tcp_out.o [2]
tcp_rexmit_rto          0x10025aa3    0x2a  Code  Gb  tcp_out.o [2]
tcp_rst                 0x10025a1d    0x86  Code  Gb  tcp_out.o [2]
tcp_seg_copy            0x1002256d    0x24  Code  Gb  tcp.o [2]
tcp_seg_free            0x10022551    0x1c  Code  Gb  tcp.o [2]
tcp_segs_free           0x1002253f    0x12  Code  Gb  tcp.o [2]
tcp_send_empty_ack      0x1002579f    0x52  Code  Gb  tcp_out.o [2]
tcp_send_fin            0x1002529b    0x40  Code  Gb  tcp_out.o [2]
tcp_sent                0x100226bb     0x6  Code  Gb  tcp.o [2]
tcp_shutdown            0x10021ded    0x44  Code  Gb  tcp.o [2]
tcp_slowtmr             0x100221f5   0x27a  Code  Gb  tcp.o [2]
tcp_ticks               0x1004dcdc     0x4  Data  Gb  tcp.o [2]
tcp_timer               0x10057cd5     0x1  Data  Lc  tcp.o [2]
tcp_timer_ctr           0x1004dcd9     0x1  Data  Lc  tcp.o [2]
tcp_timer_needed        0x10022a6b    0x1e  Code  Gb  lwip_timers.o [2]
tcp_tmp_pcb             0x1004dcf0     0x4  Data  Gb  tcp.o [2]
tcp_tmr                 0x10021cbf    0x1e  Code  Gb  tcp.o [2]
tcp_tw_pcbs             0x1004dcec     0x4  Data  Gb  tcp.o [2]
tcp_update_rcv_ann_wnd  0x10022005    0x34  Code  Gb  tcp.o [2]
tcp_write               0x100253d7   0x314  Code  Gb  tcp_out.o [2]
tcp_zero_window_probe   0x10025bbd    0x98  Code  Gb  tcp_out.o [2]
tcphdr                  0x10053bd0     0x4  Data  Lc  tcp_in.o [2]
tcpip_apimsg            0x10018bbd    0x3e  Code  Gb  tcpip.o [2]
tcpip_callback_with_block
                        0x10018b13    0x58  Code  Gb  tcpip.o [2]
tcpip_init              0x10018bfb    0x2e  Code  Gb  tcpip.o [2]
tcpip_init_done         0x10053be4     0x4  Data  Lc  tcpip.o [2]
tcpip_init_done_arg     0x10053be8     0x4  Data  Lc  tcpip.o [2]
tcpip_input             0x10018add    0x36  Code  Gb  tcpip.o [2]
tcpip_tcp_timer         0x10022a49    0x22  Code  Lc  lwip_timers.o [2]
tcpip_tcp_timer_active  0x10053884     0x4  Data  Lc  lwip_timers.o [2]
tcpip_thread            0x10018a41    0x92  Code  Lc  tcpip.o [2]
tcpip_timeout           0x10018b6b    0x38  Code  Gb  tcpip.o [2]
tcplen                  0x10053bcc     0x2  Data  Lc  tcp_in.o [2]
tens                    0x0003eb08    0xc8  Data  Lc  rom.o [11]
timer_table             0x100557a0     0x8  Data  Gb  rtk_wlan_if.o [8]
timer_used_num          0x100557a8     0x4  Data  Lc  rtk_wlan_if.o [8]
timer_wrapper           0x1001910d    0x56  Code  Gb  rtk_wlan_if.o [8]
tkip_80211_decrypt      0x000149d5    0xb6  Code  Gb  rom.o [11]
tkip_80211_encrypt      0x00014941    0x94  Code  Gb  rom.o [11]
tkip_micappendbyte      0x00014389    0x50  Code  Gb  rom.o [11]
tkip_phase1             0x000145a5   0x180  Code  Gb  rom.o [11]
tkip_phase2             0x00014725   0x21a  Code  Gb  rom.o [11]
traffic_status_watchdog
                        0x10027ea5    0x88  Code  Lc  rtw_cmd.o [8]
translate2dbm           0x1003da13     0x8  Code  Gb  rtl8195a_rxdesc.o [8]
tryget_socket           0x10011101    0x18  Code  Lc  sockets.o [2]
tx_beacon_hdl           0x10032547    0xb2  Code  Gb  rtw_mlme_ext.o [8]
ucHeap                  0x10061000  0xf000  Data  Lc  heap_5.o [2]
udp_bind                0x10024d3d    0x8c  Code  Gb  udp.o [2]
udp_connect             0x10024dc9    0x46  Code  Gb  udp.o [2]
udp_disconnect          0x10024e0f    0x10  Code  Gb  udp.o [2]
udp_init                0x10024a65     0x2  Code  Gb  udp.o [2]
udp_input               0x10024a67   0x1a4  Code  Gb  udp.o [2]
udp_mcast               0x1004df84    0x3c  Data  Gb  wifi_simple_config_parser.o [8]
udp_mcast_pin           0x1004dfc0    0x3c  Data  Gb  wifi_simple_config_parser.o [8]
udp_new                 0x10024e59    0x1c  Code  Gb  udp.o [2]
udp_pcbs                0x1004dcfc     0x4  Data  Gb  udp.o [2]
udp_port                0x1004dcf8     0x2  Data  Lc  udp.o [2]
udp_recv                0x10024e1f     0x6  Code  Gb  udp.o [2]
udp_remove              0x10024e25    0x28  Code  Gb  udp.o [2]
udp_send                0x10024c0b     0x4  Code  Gb  udp.o [2]
udp_sendto              0x10024c0f    0x36  Code  Gb  udp.o [2]
udp_sendto_if           0x10024c45    0xf8  Code  Gb  udp.o [2]
ulPortSetInterruptMask  0x1004d7cf          Code  Gb  portasm.o [2]
ulStoppedTimerCompensation
                        0x100538c8     0x4  Data  Lc  port.o [2]
ulTimerCountsForOneTick
                        0x100538c0     0x4  Data  Lc  port.o [2]
update_BCNTIM           0x1002ac9b   0x116  Code  Lc  rtw_ap.o [8]
update_IOT_info         0x10027487    0x3a  Code  Gb  rtw_wlan_util.o [8]
update_MCS_rate         0x10027305     0xc  Code  Gb  rtw_wlan_util.o [8]
update_TSF              0x10027617     0xc  Code  Gb  rtw_wlan_util.o [8]
update_attrib           0x1002d053   0x308  Code  Lc  rtw_xmit.o [8]
update_basic_rate       0x100272a5    0x30  Code  Gb  rtw_wlan_util.o [8]
update_bcn_vendor_spec_ie
                        0x1002b8e7    0x48  Code  Lc  rtw_ap.o [8]
update_bcn_wps_ie       0x1002b849    0x9e  Code  Lc  rtw_ap.o [8]
update_beacon           0x1002b941    0xac  Code  Gb  rtw_ap.o [8]
update_beacon_info      0x10027189    0x4a  Code  Gb  rtw_wlan_util.o [8]
update_bmc_sta          0x1002b035    0xda  Code  Lc  rtw_ap.o [8]
update_bmc_sta_support_rate
                        0x100275f1    0x26  Code  Gb  rtw_wlan_util.o [8]
update_capinfo          0x100274c1    0x7a  Code  Gb  rtw_wlan_util.o [8]
update_hidden_ssid      0x1002f723    0x4a  Code  Gb  rtw_mlme_ext.o [8]
update_mgnt_tx_rate     0x1002f6ab     0x6  Code  Gb  rtw_mlme_ext.o [8]
update_mgntframe_attrib
                        0x1002f6b1    0x5a  Code  Gb  rtw_mlme_ext.o [8]
update_network          0x10020d9f    0xaa  Code  Gb  rtw_mlme.o [8]
update_ota_local        0x10010059    0x74  Code  Gb  update.o [2]
update_ota_local_task   0x1000fbc5   0x482  Code  Lc  update.o [2]
update_sta_info         0x100319db    0x66  Code  Gb  rtw_mlme_ext.o [8]
update_sta_info_apmode  0x1002b11f    0xa8  Code  Gb  rtw_ap.o [8]
update_supported_rate   0x100272d5    0x2a  Code  Gb  rtw_wlan_util.o [8]
update_tx_basic_rate    0x10027369    0x50  Code  Gb  rtw_wlan_util.o [8]
update_wireless_mode    0x1002753b    0x9e  Code  Gb  rtw_wlan_util.o [8]
us_ticker_read          0x10026149    0x24  Code  Gb  us_ticker.o [2]
use_ios7_mac            0x1004df6c     0x4  Data  Lc  wifi_simple_config_parser.o [8]
uxCriticalNesting       0x1004dc34     0x4  Data  Lc  port.o [2]
uxCurrentNumberOfTasks  0x1004dc88     0x4  Data  Lc  tasks.o [2]
uxListRemove            0x1001d257    0x24  Code  Gb  list.o [2]
uxPendedTicks           0x1004dc98     0x4  Data  Lc  tasks.o [2]
uxQueueMessagesWaiting  0x1001cc1f     0xa  Code  Gb  queue.o [2]
uxSchedulerSuspended    0x1004dcac     0x4  Data  Lc  tasks.o [2]
uxTaskNumber            0x1004dca4     0x4  Data  Lc  tasks.o [2]
uxTasksDeleted          0x1004dc70     0x4  Data  Lc  tasks.o [2]
uxTopReadyPriority      0x1004dc90     0x4  Data  Lc  tasks.o [2]
vApplicationIdleHook    0x10016fe5     0x2  Code  Gb  port.o [2]
vApplicationStackOverflowHook
                        0x10016fe7    0x12  Code  Gb  port.o [2]
vListInitialise         0x1001d1ed    0x1a  Code  Gb  list.o [2]
vListInitialiseItem     0x1001d207     0x6  Code  Gb  list.o [2]
vListInsert             0x1001d225    0x32  Code  Gb  list.o [2]
vListInsertEnd          0x1001d20d    0x18  Code  Gb  list.o [2]
vPortClearInterruptMask
                        0x1004d7dd          Code  Gb  portasm.o [2]
vPortDefineHeapRegions  0x1001651d    0x60  Code  Gb  heap_5.o [2]
vPortEnterCritical      0x10016e95    0x18  Code  Gb  port.o [2]
vPortExitCritical       0x10016ead    0x12  Code  Gb  port.o [2]
vPortFree               0x100164b5    0x1a  Code  Gb  heap_5.o [2]
vPortSVCHandler         0x1004d7e3          Code  Gb  portasm.o [2]
vPortSetExtFree         0x100164ab     0xa  Code  Gb  heap_5.o [2]
vPortSetupTimerInterrupt
                        0x10016fa3    0x26  Code  Wk  port.o [2]
vPortStartFirstTask     0x1004d803          Code  Gb  portasm.o [2]
vPortSuppressTicksAndSleep
                        0x10016edd    0xbc  Code  Wk  port.o [2]
vPortYield              0x10016e83    0x12  Code  Gb  port.o [2]
vQueueDelete            0x1001cc31    0x16  Code  Gb  queue.o [2]
vQueueWaitForMessageRestricted
                        0x1001cd4f    0x3c  Code  Gb  queue.o [2]
vTaskDelay              0x1001430f    0x2c  Code  Gb  tasks.o [2]
vTaskDelete             0x100142c5    0x4a  Code  Gb  tasks.o [2]
vTaskMissedYield        0x100147b3     0x8  Code  Gb  tasks.o [2]
vTaskPlaceOnEventList   0x10014683    0x18  Code  Gb  tasks.o [2]
vTaskPlaceOnEventListRestricted
                        0x100146d7    0x24  Code  Gb  tasks.o [2]
vTaskPriorityInherit    0x100148ed    0x80  Code  Gb  tasks.o [2]
vTaskPrioritySet        0x10014353    0xa0  Code  Gb  tasks.o [2]
vTaskSetTimeOutState    0x10014763     0xc  Code  Gb  tasks.o [2]
vTaskStartScheduler     0x10014435    0x48  Code  Gb  tasks.o [2]
vTaskStepTick           0x10014555     0xc  Code  Gb  tasks.o [2]
vTaskSuspendAll         0x1001447d     0xc  Code  Gb  tasks.o [2]
vTaskSwitchContext      0x10014611    0x66  Code  Gb  tasks.o [2]
vWFSSVCHandler          0x10038c1d     0x2  Code  Gb  hal_soc_ps_monitor.o [2]
valid_config_methods    0x1004cd39    0x34  Code  Lc  wps_validate.o [9]
validate_recv_ctrl_frame
                        0x1001fc7b   0x158  Code  Gb  rtw_recv.o [8]
validate_recv_data_frame
                        0x1001fe11   0x1f8  Code  Gb  rtw_recv.o [8]
validate_recv_frame     0x1002001f    0xc2  Code  Gb  rtw_recv.o [8]
validate_recv_mgnt_frame
                        0x1001fdd3    0x3e  Code  Gb  rtw_recv.o [8]
vsnprintf               0x10013ccd    0x3c  Code  Gb  vsnprint.o [4]
wakelock                0x1004dc00     0x4  Data  Lc  freertos_pmu.o [2]
wakeup_event            0x1004dc04     0x4  Data  Lc  freertos_pmu.o [2]
wakeup_sta_to_xmit      0x1002df79   0x1c4  Code  Gb  rtw_xmit.o [8]
wep_80211_decrypt       0x000142f5    0x92  Code  Gb  rom.o [11]
wep_80211_encrypt       0x00014295    0x60  Code  Gb  rom.o [11]
wext_enable_powersave   0x10019fcb    0x40  Code  Gb  wifi_util.o [2]
wext_get_channel        0x1001a225    0x2c  Code  Gb  wifi_util.o [2]
wext_get_enc_ext        0x10019ecf    0x6c  Code  Gb  wifi_util.o [2]
wext_get_mode           0x1001a0d9    0x2a  Code  Gb  wifi_util.o [2]
wext_get_passphrase     0x10019f8b    0x32  Code  Gb  wifi_util.o [2]
wext_get_rssi           0x1001a13b    0x2c  Code  Gb  wifi_util.o [2]
wext_get_scan           0x1001a281    0x2e  Code  Gb  wifi_util.o [2]
wext_get_ssid           0x10019cb5    0x4c  Code  Gb  wifi_util.o [2]
wext_private_command    0x1001a33b    0x92  Code  Gb  wifi_util.o [2]
wext_private_command_with_retval
                        0x1001a2af    0x86  Code  Gb  wifi_util.o [2]
wext_set_ap_ssid        0x1001a103    0x28  Code  Gb  wifi_util.o [2]
wext_set_auth_param     0x10019d9b    0x38  Code  Gb  wifi_util.o [2]
wext_set_autoreconnect  0x1001a4fb    0x3a  Code  Gb  wifi_util.o [2]
wext_set_bssid          0x10019d2d    0x4c  Code  Gb  wifi_util.o [2]
wext_set_channel        0x1001a1ed    0x2e  Code  Gb  wifi_util.o [2]
wext_set_key_ext        0x10019dd3    0xfc  Code  Gb  wifi_util.o [2]
wext_set_lps_dtim       0x1001a06d    0x42  Code  Gb  wifi_util.o [2]
wext_set_mode           0x1001a0af    0x24  Code  Gb  wifi_util.o [2]
wext_set_passphrase     0x10019f3b    0x2a  Code  Gb  wifi_util.o [2]
wext_set_pscan_channel  0x1001a167    0x7e  Code  Gb  wifi_util.o [2]
wext_set_scan           0x1001a251    0x30  Code  Gb  wifi_util.o [2]
wext_set_ssid           0x10019d01    0x2c  Code  Gb  wifi_util.o [2]
wext_set_tdma_param     0x1001a00b    0x48  Code  Gb  wifi_util.o [2]
wext_wlan_indicate      0x1001a3d9    0xf6  Code  Gb  wifi_util.o [2]
wifi                    0x100512c8    0x38  Data  Lc  atcmd_wifi.o [2]
wifi_add_packet_filter  0x10013105     0x4  Code  Gb  wifi_conf.o [2]
wifi_ap_sta_assoc_hdl   0x10012a6b     0x2  Code  Lc  wifi_conf.o [2]
wifi_ap_sta_disassoc_hdl
                        0x10012a6d     0x2  Code  Lc  wifi_conf.o [2]
wifi_autoreconnect_hdl  0x10013045    0x32  Code  Gb  wifi_conf.o [2]
wifi_autoreconnect_thread
                        0x10012fdd    0x68  Code  Lc  wifi_conf.o [2]
wifi_config_autoreconnect
                        0x10013077    0x26  Code  Gb  wifi_conf.o [2]
wifi_connect            0x10012439   0x214  Code  Gb  wifi_conf.o [2]
wifi_connect_bssid      0x100126a9   0x18c  Code  Gb  wifi_conf.o [2]
wifi_connect_bssid_local
                        0x10011ff7   0x110  Code  Lc  wifi_conf.o [2]
wifi_connect_local      0x10011f11    0xdc  Code  Lc  wifi_conf.o [2]
wifi_connected_hdl      0x1001219d    0x2c  Code  Lc  wifi_conf.o [2]
wifi_disable_packet_filter
                        0x1001310d     0x4  Code  Gb  wifi_conf.o [2]
wifi_disconn_hdl        0x100121df    0x94  Code  Lc  wifi_conf.o [2]
wifi_disconnect         0x1001285b    0x2a  Code  Gb  wifi_conf.o [2]
wifi_enable_packet_filter
                        0x10013109     0x4  Code  Gb  wifi_conf.o [2]
wifi_enter_promisc_mode
                        0x10012f85    0x4c  Code  Gb  wifi_conf.o [2]
wifi_get_associated_client_list
                        0x100128f3    0x3a  Code  Gb  wifi_conf.o [2]
wifi_get_mac_address    0x100128bd    0x36  Code  Gb  wifi_conf.o [2]
wifi_get_rssi           0x10012935     0xa  Code  Gb  wifi_conf.o [2]
wifi_get_setting        0x10012e17    0xac  Code  Gb  wifi_conf.o [2]
wifi_handshake_done_hdl
                        0x100121c9    0x16  Code  Lc  wifi_conf.o [2]
wifi_indication         0x1001a929    0x3a  Code  Gb  wifi_ind.o [2]
wifi_init_packet_filter
                        0x10013101     0x4  Code  Gb  wifi_conf.o [2]
wifi_is_connected_to_ap
                        0x10012a85     0x4  Code  Gb  wifi_conf.o [2]
wifi_mac_hash           0x1002c6f5    0x2a  Code  Lc  rtw_sta_mgt.o [8]
wifi_mode               0x10053c50     0x4  Data  Lc  wifi_conf.o [2]
wifi_no_network_hdl     0x1001218f     0xe  Code  Lc  wifi_conf.o [2]
wifi_off                0x100129d7    0x6a  Code  Gb  wifi_conf.o [2]
wifi_on                 0x10012949    0x8e  Code  Gb  wifi_conf.o [2]
wifi_reg_event_handler  0x1001a963    0x3a  Code  Gb  wifi_ind.o [2]
wifi_remove_packet_filter
                        0x10013111     0x4  Code  Gb  wifi_conf.o [2]
wifi_rx_beacon_hdl      0x1001218d     0x2  Code  Gb  wifi_conf.o [2]
wifi_scan               0x10012ced    0x56  Code  Gb  wifi_conf.o [2]
wifi_scan_done_hdl      0x10012c83    0x64  Code  Lc  wifi_conf.o [2]
wifi_scan_each_report_hdl
                        0x10012b59   0x12a  Code  Lc  wifi_conf.o [2]
wifi_scan_networks      0x10012d65    0x92  Code  Gb  wifi_conf.o [2]
wifi_set_autoreconnect  0x1001309d    0x1c  Code  Gb  wifi_conf.o [2]
wifi_set_channel        0x1001293f     0xa  Code  Gb  wifi_conf.o [2]
wifi_set_lps_dtim       0x10012a61     0xa  Code  Gb  wifi_conf.o [2]
wifi_set_power_mode     0x10012a41     0x4  Code  Gb  wifi_conf.o [2]
wifi_set_promisc        0x10012f81     0x4  Code  Gb  wifi_conf.o [2]
wifi_set_pscan_chan     0x10012e05    0x12  Code  Gb  wifi_conf.o [2]
wifi_set_tdma_param     0x10012a4d    0x14  Code  Gb  wifi_conf.o [2]
wifi_set_wps_phase      0x10012f7d     0x4  Code  Gb  wifi_conf.o [2]
wifi_show_setting       0x10012ed1    0x9e  Code  Gb  wifi_conf.o [2]
wifi_start_ap           0x10012a89    0xcc  Code  Gb  wifi_conf.o [2]
wifi_unreg_event_handler
                        0x1001a99d    0x30  Code  Gb  wifi_ind.o [2]
wifirate2_ratetbl_inx   0x10027245    0x60  Code  Gb  rtw_wlan_util.o [8]
wireless_send_event     0x10033987     0xa  Code  Gb  freertos_ioctl.o [8]
wlan_init_done_callback
                        0x10049f51    0xd0  Code  Gb  example_wlan_fast_connect.o [2]
wlan_network            0x1004a9fd    0x3a  Code  Gb  wlan_network.o [2]
wlan_wrtie_reconnect_data_to_flash
                        0x10049ef5    0x5c  Code  Gb  example_wlan_fast_connect.o [2]
wlancmds                0x1002840c   0x1f8  Data  Gb  rtw_cmd.o [8]
wlanevents              0x10032990    0xc0  Data  Lc  rtw_mlme_ext.o [8]
wlanhdr_to_ethhdr       0x100200e9   0x138  Code  Gb  rtw_recv.o [8]
wpa_global_PSK          0x100558a0    0x50  Data  Gb  rtw_psk.o [8]
wpa_set_encryption      0x10033b4b   0x176  Code  Lc  freertos_ioctl.o [8]
wpabuf_alloc            0x100497c1    0x18  Code  Gb  wpabuf.o [9]
wpabuf_alloc_copy       0x100497d9    0x1c  Code  Gb  wpabuf.o [9]
wpabuf_dup              0x100497f5    0x1a  Code  Gb  wpabuf.o [9]
wpabuf_free             0x1004980f    0x24  Code  Gb  wpabuf.o [9]
wpabuf_put              0x10049839     0xc  Code  Gb  wpabuf.o [9]
wpabuf_put_be16         0x10049899    0x14  Code  Lc  wps_attr_build.o [9]
wpabuf_put_be16         0x1004b98d    0x14  Code  Lc  wps_dev_attr.o [9]
wpabuf_put_be16         0x1004bc85    0x14  Code  Lc  wps_enrollee.o [9]
wpabuf_put_buf          0x100497b7     0xa  Code  Lc  wpabuf.o [9]
wpabuf_put_buf          0x100498cf     0xa  Code  Lc  wps_attr_build.o [9]
wpabuf_put_data         0x1004b2fd    0x22  Code  Lc  eap_wsc.o [9]
wpabuf_put_data         0x10049795    0x22  Code  Lc  wpabuf.o [9]
wpabuf_put_data         0x100498ad    0x22  Code  Lc  wps_attr_build.o [9]
wpabuf_put_data         0x1004b9a1    0x22  Code  Lc  wps_dev_attr.o [9]
wpabuf_put_data         0x1004bc99    0x22  Code  Lc  wps_enrollee.o [9]
wpabuf_put_u8           0x1004b2ed    0x10  Code  Lc  eap_wsc.o [9]
wpabuf_put_u8           0x10049889    0x10  Code  Lc  wps_attr_build.o [9]
wpabuf_put_u8           0x1004b831    0x10  Code  Lc  eap_common.o [9]
wpabuf_put_u8           0x1004b94d    0x10  Code  Lc  eap_wsc_common.o [9]
wpabuf_zeropad          0x10049845    0x3a  Code  Gb  wpabuf.o [9]
wpas_eap_wsc_init       0x1004ad55    0x12  Code  Gb  wps_protocol_handler.o [9]
wpas_swith_to_wps_auth  0x1004ad67    0x14  Code  Gb  wps_protocol_handler.o [9]
wpas_swith_to_wps_encr  0x1004ad7b    0x20  Code  Gb  wps_protocol_handler.o [9]
wpas_wps_dev_config     0x1004ad9b    0xd0  Code  Gb  wps_protocol_handler.o [9]
wpas_wps_init           0x1004ae6b    0x7e  Code  Gb  wps_protocol_handler.o [9]
wpas_wps_notify_wps_finish
                        0x1004b011    0x34  Code  Gb  wps_protocol_handler.o [9]
wpas_wps_notify_wps_finish_hdl
                        0x1004b045     0x2  Code  Gb  wps_protocol_handler.o [9]
wpas_wsc_eapol_recvd    0x1004b1f3    0x66  Code  Gb  wps_protocol_handler.o [9]
wpas_wsc_eapol_recvd_hdl
                        0x1004b269    0x24  Code  Gb  wps_protocol_handler.o [9]
wpas_wsc_enrollee_handle_eap_fail
                        0x1004b047    0x48  Code  Gb  wps_protocol_handler.o [9]
wpas_wsc_enrollee_handle_recvd
                        0x1004b17b    0x78  Code  Gb  wps_protocol_handler.o [9]
wpas_wsc_send_eap_rspidentity
                        0x1004af4f    0x78  Code  Gb  wps_protocol_handler.o [9]
wpas_wsc_send_eapol     0x1004b09f    0xcc  Code  Gb  wps_protocol_handler.o [9]
wpas_wsc_send_packet    0x1004aee9    0x66  Code  Gb  wps_protocol_handler.o [9]
wps_build_ap_settings   0x1004bef7    0xdc  Code  Lc  wps_enrollee.o [9]
wps_build_assoc_state   0x10049adf    0x14  Code  Gb  wps_attr_build.o [9]
wps_build_auth_type_flags
                        0x10049a85    0x14  Code  Gb  wps_attr_build.o [9]
wps_build_authenticator
                        0x100499cb    0x52  Code  Gb  wps_attr_build.o [9]
wps_build_config_error  0x100499bf     0xc  Code  Gb  wps_attr_build.o [9]
wps_build_config_methods
                        0x10049979     0xc  Code  Gb  wps_attr_build.o [9]
wps_build_conn_type_flags
                        0x10049ac1    0x14  Code  Gb  wps_attr_build.o [9]
wps_build_dev_name      0x1004ba63    0x24  Code  Gb  wps_dev_attr.o [9]
wps_build_dev_password_id
                        0x1004999d     0xa  Code  Gb  wps_attr_build.o [9]
wps_build_device_attrs  0x1004ba87    0x5e  Code  Gb  wps_dev_attr.o [9]
wps_build_e_hash        0x1004bcbb    0x9e  Code  Lc  wps_enrollee.o [9]
wps_build_encr_settings
                        0x10049b25    0x76  Code  Gb  wps_attr_build.o [9]
wps_build_encr_type_flags
                        0x10049a99    0x12  Code  Gb  wps_attr_build.o [9]
wps_build_enrollee_nonce
                        0x10049a43    0x1e  Code  Gb  wps_attr_build.o [9]
wps_build_key_wrap_auth
                        0x10049af3    0x32  Code  Gb  wps_attr_build.o [9]
wps_build_m1            0x1004bd6f   0x100  Code  Gb  wps_enrollee.o [9]
wps_build_m5            0x1004be6f    0x82  Code  Lc  wps_enrollee.o [9]
wps_build_m7            0x1004bfd9    0x96  Code  Lc  wps_enrollee.o [9]
wps_build_mac_addr      0x10049b9b    0x16  Code  Gb  wps_attr_build.o [9]
wps_build_manufacturer  0x1004b9c3    0x24  Code  Gb  wps_dev_attr.o [9]
wps_build_model_name    0x1004b9e7    0x22  Code  Gb  wps_dev_attr.o [9]
wps_build_model_number  0x1004ba15    0x24  Code  Gb  wps_dev_attr.o [9]
wps_build_msg_type      0x10049a37     0xc  Code  Gb  wps_attr_build.o [9]
wps_build_os_version    0x1004bae5    0x30  Code  Gb  wps_dev_attr.o [9]
wps_build_primary_dev_type
                        0x1004ba39    0x24  Code  Gb  wps_dev_attr.o [9]
wps_build_public_key    0x100498d9    0x88  Code  Gb  wps_attr_build.o [9]
wps_build_registrar_nonce
                        0x10049a61    0x1e  Code  Gb  wps_attr_build.o [9]
wps_build_rf_bands      0x1004bb19    0x24  Code  Gb  wps_dev_attr.o [9]
wps_build_uuid_e        0x10049985    0x18  Code  Gb  wps_attr_build.o [9]
wps_build_version       0x10049a1d    0x16  Code  Gb  wps_attr_build.o [9]
wps_build_wfa_ext       0x10049a33     0x4  Code  Gb  wps_attr_build.o [9]
wps_build_wsc_ack       0x1004968d    0x42  Code  Gb  wps_common.o [9]
wps_build_wsc_nack      0x100496cf    0x4e  Code  Gb  wps_common.o [9]
wps_check_and_show_connection_info
                        0x10048a29    0x24  Code  Gb  wifi_wps_config.o [2]
wps_decrypt_encr_settings
                        0x10049569    0x7e  Code  Gb  wps_common.o [9]
wps_deinit              0x1004b7ab    0x58  Code  Gb  wps.o [9]
wps_derive_keys         0x10049439    0xde  Code  Gb  wps_common.o [9]
wps_derive_psk          0x10049517    0x52  Code  Gb  wps_common.o [9]
wps_device_data_free    0x1004bc3b    0x44  Code  Gb  wps_dev_attr.o [9]
wps_enrollee_get_msg    0x1004c09f   0x11e  Code  Gb  wps_enrollee.o [9]
wps_enrollee_process_msg
                        0x1004c60b    0xb4  Code  Gb  wps_enrollee.o [9]
wps_generate_pin        0x10049647    0x3a  Code  Gb  wps_common.o [9]
wps_get_msg             0x1004b80d     0x4  Code  Gb  wps.o [9]
wps_init                0x1004b68d   0x106  Code  Gb  wps.o [9]
wps_judge_staion_disconnect
                        0x10048dc7    0x46  Code  Gb  wifi_wps_config.o [2]
wps_kdf                 0x10049395    0xa4  Code  Gb  wps_common.o [9]
wps_oui                 0x00035440     0x4  Data  Lc  rom.o [11]
wps_parse_msg           0x1004cabd    0x8c  Code  Gb  wps_attr_parse.o [9]
wps_parse_vendor_ext_wfa
                        0x1004c6d3    0x5c  Code  Lc  wps_attr_parse.o [9]
wps_password_id         0x10053e80     0x1  Data  Gb  wifi_wps_config.o [2]
wps_pin_checksum        0x100495e7    0x3e  Code  Gb  wps_common.o [9]
wps_pin_code            0x10053e88    0x20  Data  Gb  wifi_wps_config.o [2]
wps_pin_valid           0x10049625    0x22  Code  Gb  wps_common.o [9]
wps_process_authenticator
                        0x1004cb49    0x4e  Code  Gb  wps_attr_process.o [9]
wps_process_cred        0x1004cc9b    0x54  Code  Gb  wps_attr_process.o [9]
wps_process_cred_auth_type
                        0x1004cbfd    0x12  Code  Lc  wps_attr_process.o [9]
wps_process_cred_e      0x1004c27b    0x42  Code  Lc  wps_enrollee.o [9]
wps_process_cred_encr_type
                        0x1004cc0f    0x12  Code  Lc  wps_attr_process.o [9]
wps_process_cred_mac_addr
                        0x1004cc61    0x16  Code  Lc  wps_attr_process.o [9]
wps_process_cred_network_key
                        0x1004cc33    0x28  Code  Lc  wps_attr_process.o [9]
wps_process_cred_network_key_idx
                        0x1004cc27     0xc  Code  Lc  wps_attr_process.o [9]
wps_process_cred_ssid   0x1004cbd3    0x2a  Code  Lc  wps_attr_process.o [9]
wps_process_creds       0x1004c2bd    0x40  Code  Lc  wps_enrollee.o [9]
wps_process_device_attrs
                        0x1004bb3d    0xea  Code  Gb  wps_dev_attr.o [9]
wps_process_enrollee_nonce
                        0x1004c1bd    0x18  Code  Lc  wps_enrollee.o [9]
wps_process_key_wrap_auth
                        0x1004cb97    0x3c  Code  Gb  wps_attr_process.o [9]
wps_process_m2          0x1004c2fd    0x90  Code  Lc  wps_enrollee.o [9]
wps_process_m4          0x1004c38d    0x86  Code  Lc  wps_enrollee.o [9]
wps_process_m8          0x1004c423    0x7a  Code  Lc  wps_enrollee.o [9]
wps_process_msg         0x1004b809     0x4  Code  Gb  wps.o [9]
wps_process_r_snonce1   0x1004c1d5    0x38  Code  Lc  wps_enrollee.o [9]
wps_process_r_snonce2   0x1004c20d    0x38  Code  Lc  wps_enrollee.o [9]
wps_process_wsc_msg     0x1004c4bd   0x14e  Code  Lc  wps_enrollee.o [9]
wps_scan_result_handler
                        0x10048a4d    0x82  Code  Lc  wifi_wps_config.o [2]
wps_set_attr            0x1004c72f   0x38e  Code  Lc  wps_attr_parse.o [9]
wps_start               0x10048adb   0x2e2  Code  Gb  wifi_wps_config.o [2]
wps_validate_assoc_state
                        0x1004cdb9    0x18  Code  Lc  wps_validate.o [9]
wps_validate_auth_type  0x1004cee9    0x2c  Code  Lc  wps_validate.o [9]
wps_validate_auth_type_flags
                        0x1004cecd    0x1c  Code  Lc  wps_validate.o [9]
wps_validate_authenticator
                        0x1004cf83     0xa  Code  Lc  wps_validate.o [9]
wps_validate_config_error
                        0x1004cdd1    0x18  Code  Lc  wps_validate.o [9]
wps_validate_config_methods
                        0x1004cd6d    0x20  Code  Lc  wps_validate.o [9]
wps_validate_conn_type_flags
                        0x1004cf63    0x16  Code  Lc  wps_validate.o [9]
wps_validate_cred       0x1004cff9    0x82  Code  Lc  wps_validate.o [9]
wps_validate_dev_name   0x1004ce5b    0x16  Code  Lc  wps_validate.o [9]
wps_validate_dev_password_id
                        0x1004cde9    0x1a  Code  Lc  wps_validate.o [9]
wps_validate_encr_settings
                        0x1004cf8d    0x10  Code  Lc  wps_validate.o [9]
wps_validate_encr_type  0x1004cf31    0x2c  Code  Lc  wps_validate.o [9]
wps_validate_encr_type_flags
                        0x1004cf15    0x1c  Code  Lc  wps_validate.o [9]
wps_validate_enrollee_nonce
                        0x1004ce97     0xa  Code  Lc  wps_validate.o [9]
wps_validate_key_wrap_auth
                        0x1004cf9d     0xa  Code  Lc  wps_validate.o [9]
wps_validate_m2         0x1004d0b7   0x10e  Code  Gb  wps_validate.o [9]
wps_validate_m2d        0x1004d1c5    0xda  Code  Gb  wps_validate.o [9]
wps_validate_m4         0x1004d2ad    0x56  Code  Gb  wps_validate.o [9]
wps_validate_m4_encr    0x1004d303    0x28  Code  Gb  wps_validate.o [9]
wps_validate_m6         0x1004d34f    0x4a  Code  Gb  wps_validate.o [9]
wps_validate_m6_encr    0x1004d3af    0x28  Code  Gb  wps_validate.o [9]
wps_validate_m8         0x1004d3d7    0x4a  Code  Gb  wps_validate.o [9]
wps_validate_m8_encr    0x1004d421    0x8a  Code  Gb  wps_validate.o [9]
wps_validate_mac_addr   0x1004ce85    0x12  Code  Lc  wps_validate.o [9]
wps_validate_manufacturer
                        0x1004ce03    0x16  Code  Lc  wps_validate.o [9]
wps_validate_model_name
                        0x1004ce19    0x16  Code  Lc  wps_validate.o [9]
wps_validate_model_number
                        0x1004ce2f    0x16  Code  Lc  wps_validate.o [9]
wps_validate_msg_type   0x1004ce71    0x14  Code  Lc  wps_validate.o [9]
wps_validate_network_key
                        0x1004cfcb    0x2e  Code  Lc  wps_validate.o [9]
wps_validate_network_key_index
                        0x1004cfc1     0xa  Code  Lc  wps_validate.o [9]
wps_validate_os_version
                        0x1004cf79     0xa  Code  Lc  wps_validate.o [9]
wps_validate_primary_dev_type
                        0x1004cd97     0xa  Code  Lc  wps_validate.o [9]
wps_validate_public_key
                        0x1004ceab    0x10  Code  Lc  wps_validate.o [9]
wps_validate_registrar_nonce
                        0x1004cea1     0xa  Code  Lc  wps_validate.o [9]
wps_validate_rf_bands   0x1004cda1    0x18  Code  Lc  wps_validate.o [9]
wps_validate_serial_number
                        0x1004ce45    0x16  Code  Lc  wps_validate.o [9]
wps_validate_ssid       0x1004cfa7    0x1a  Code  Lc  wps_validate.o [9]
wps_validate_uuid_r     0x1004cd8d     0xa  Code  Lc  wps_validate.o [9]
wps_validate_version    0x1004cd0f    0x12  Code  Lc  wps_validate.o [9]
wps_validate_version2   0x1004cd21    0x12  Code  Lc  wps_validate.o [9]
wps_validate_wsc_ack    0x1004d4ab    0x46  Code  Gb  wps_validate.o [9]
wps_validate_wsc_nack   0x1004d4f1    0x4e  Code  Gb  wps_validate.o [9]
wps_workaround_cred_key
                        0x1004cc77    0x24  Code  Lc  wps_attr_process.o [9]
wrapper_skbbuf_list     0x10055af0     0x8  Data  Lc  freertos_skbuff.o [8]
write_cam               0x10026b51    0x6a  Code  Gb  rtw_wlan_util.o [8]
write_ota_addr_to_system_data
                        0x1000fb25    0x96  Code  Gb  update.o [2]
wsc_eap                 0x10057c14    0x1c  Data  Gb  eap_wsc.o [9]
xActiveTimerList1       0x10053c00    0x14  Data  Lc  timers.o [2]
xActiveTimerList2       0x10053c14    0x14  Data  Lc  timers.o [2]
xBlockAllocatedBit      0x10053654     0x4  Data  Lc  heap_5.o [2]
xDelayedTaskList1       0x1004dcb0    0x14  Data  Lc  tasks.o [2]
xDelayedTaskList2       0x1004dcc4    0x14  Data  Lc  tasks.o [2]
xFreeBytesRemaining     0x1005364c     0x4  Data  Lc  heap_5.o [2]
xHeapRegions            0x10053628    0x18  Data  Gb  heap_5.o [2]
xMaximumPossibleSuppressedTicks
                        0x100538c4     0x4  Data  Lc  port.o [2]
xMinimumEverFreeBytesRemaining
                        0x10053650     0x4  Data  Lc  heap_5.o [2]
xNextTaskUnblockTime    0x1004dca8     0x4  Data  Lc  tasks.o [2]
xNumOfOverflows         0x1004dca0     0x4  Data  Lc  tasks.o [2]
xPendingReadyList       0x1004dc3c    0x14  Data  Lc  tasks.o [2]
xPortGetFreeHeapSize    0x100164cf     0x6  Code  Gb  heap_5.o [2]
xPortPendSVHandler      0x1004d791          Code  Gb  portasm.o [2]
xPortStartScheduler     0x10016e5d    0x26  Code  Gb  port.o [2]
xPortSysTickHandler     0x10016ebf    0x1e  Code  Gb  port.o [2]
xQueueCreateCountingSemaphore
                        0x1001c9cf    0x12  Code  Gb  queue.o [2]
xQueueCreateMutex       0x1001c985    0x40  Code  Gb  queue.o [2]
xQueueGenericCreate     0x1001c949    0x3c  Code  Gb  queue.o [2]
xQueueGenericReceive    0x1001cb11    0xfa  Code  Gb  queue.o [2]
xQueueGenericReset      0x1001c8e9    0x60  Code  Gb  queue.o [2]
xQueueGenericSend       0x1001c9e1    0xc4  Code  Gb  queue.o [2]
xQueueGenericSendFromISR
                        0x1001caa5    0x6c  Code  Gb  queue.o [2]
xSchedulerRunning       0x1004dc94     0x4  Data  Lc  tasks.o [2]
xStart                  0x10053640     0x8  Data  Lc  heap_5.o [2]
xSuspendedTaskList      0x1004dc74    0x14  Data  Lc  tasks.o [2]
xTaskCheckForTimeOut    0x1001476f    0x3c  Code  Gb  tasks.o [2]
xTaskGenericCreate      0x100141ad   0x118  Code  Gb  tasks.o [2]
xTaskGetSchedulerState  0x100148d7    0x16  Code  Gb  tasks.o [2]
xTaskGetTickCount       0x10014535     0xc  Code  Gb  tasks.o [2]
xTaskIncrementTick      0x10014561    0xb0  Code  Gb  tasks.o [2]
xTaskPriorityDisinherit
                        0x1001496d    0x6a  Code  Gb  tasks.o [2]
xTaskRemoveFromEventList
                        0x10014705    0x38  Code  Gb  tasks.o [2]
xTaskResumeAll          0x100144a9    0x8c  Code  Gb  tasks.o [2]
xTasksWaitingTermination
                        0x1004dc50    0x14  Data  Lc  tasks.o [2]
xTickCount              0x1004dc8c     0x4  Data  Lc  tasks.o [2]
xTimerCreate            0x1001d2af    0x3a  Code  Gb  timers.o [2]
xTimerCreateTimerTask   0x1001d27d    0x32  Code  Gb  timers.o [2]
xTimerGenericCommand    0x1001d2e9    0x46  Code  Gb  timers.o [2]
xTimerIsTimerActive     0x1001d54b    0x1a  Code  Gb  timers.o [2]
xTimerQueue             0x10053bf8     0x4  Data  Lc  timers.o [2]
xYieldPending           0x1004dc9c     0x4  Data  Lc  tasks.o [2]
xmit_delivery_enabled_frames
                        0x1002e14f   0x102  Code  Gb  rtw_xmit.o [8]
xmitframe_addmic        0x1002d35b   0x18e  Code  Gb  rtw_xmit.o [8]
xmitframe_enqueue_for_sleeping_sta
                        0x1002dcdf   0x154  Code  Gb  rtw_xmit.o [8]
xmitframe_swencrypt     0x1002d4ef    0x30  Code  Gb  rtw_xmit.o [8]
xnetif                  0x10053808    0x78  Data  Gb  lwip_netconf.o [2]
z1                      0x10000374     0x4  Data  Lc  rom.o [11]
z2                      0x10000378     0x4  Data  Lc  rom.o [11]
z3                      0x1000037c     0x4  Data  Lc  rom.o [11]
z4                      0x10000380     0x4  Data  Lc  rom.o [11]
zero_bssid              0x10018564     0x8  Data  Gb  rtw_promisc.o [8]
zeroes                  0x0003ec14    0x10  Data  Lc  rom.o [11]


[1] = D:\工作资料\斐联\sdk-ameba1-v3.4b\project\realtek_ameba1_va0_example\EWARM-RELEASE\..\..\..\component\soc\realtek\8195a\misc\bsp\image
[2] = D:\工作资料\斐联\sdk-ameba1-v3.4b\project\realtek_ameba1_va0_example\EWARM-RELEASE\Debug\Obj
[3] = command line
[4] = dl7M_tln.a
[5] = lib_mdns.a
[6] = lib_platform.a
[7] = lib_rtlstd.a
[8] = lib_wlan.a
[9] = lib_wps.a
[10] = m7M_tl.a
[11] = rom.a
[12] = rt7M_tl.a

  282 316 bytes of readonly  code memory
  276 520 bytes of readwrite code memory
   24 698 bytes of readonly  data memory
  182 566 bytes of readwrite data memory

Errors: none
Warnings: none
